; ModuleID = './myTestCases/main.cpp'
source_filename = "./myTestCases/main.cpp"
target datalayout = "e-m:o-i64:64-i128:128-n32:64-S128"
target triple = "arm64-apple-macosx14.0.0"

%struct.__sFILE = type { i8*, i32, i32, i16, i16, %struct.__sbuf, i32, i8*, i32 (i8*)*, i32 (i8*, i8*, i32)*, i64 (i8*, i64, i32)*, i32 (i8*, i8*, i32)*, %struct.__sbuf, %struct.__sFILEX*, i32, [3 x i8], [1 x i8], %struct.__sbuf, i32, i64 }
%struct.__sFILEX = type opaque
%struct.__sbuf = type { i8*, i32 }

@.str = private unnamed_addr constant [2 x i8] c"a\00", align 1
@.str.1 = private unnamed_addr constant [4 x i8] c"%s\0A\00", align 1
@.str.2 = private unnamed_addr constant [3 x i8] c"{\0A\00", align 1
@.str.3 = private unnamed_addr constant [3 x i8] c"}\0A\00", align 1
@.str.4 = private unnamed_addr constant [31 x i8] c"Error: Failed to open file %s\0A\00", align 1
@_ZZ4mainE2_B = internal global i8* null, align 8, !dbg !0
@.str.5 = private unnamed_addr constant [23 x i8] c"##SIG_AFL_PERSISTENT##\00", align 1
@__afl_connected = external local_unnamed_addr global i32, align 4
@__stdinp = external local_unnamed_addr global %struct.__sFILE*, align 8
@.str.6 = private unnamed_addr constant [14 x i8] c"__memrchr.cpp\00", align 1
@.str.7 = private unnamed_addr constant [48 x i8] c"void *__memrchr(const void *m, int c, size_t n)\00", align 1
@.str.8 = private unnamed_addr constant [19 x i8] c"ret == valuestring\00", align 1
@__afl_area_ptr = external global i8*
@__sancov_gen_ = private global [4 x i32] zeroinitializer, section "__DATA,__sancov_guards", align 4
@__sancov_gen_.9 = private global [4 x i32] zeroinitializer, section "__DATA,__sancov_guards", align 4
@__sancov_gen_.10 = private global [15 x i32] zeroinitializer, section "__DATA,__sancov_guards", align 4
@"\01section$start$__DATA$__sancov_guards" = extern_weak hidden global i32*
@"\01section$end$__DATA$__sancov_guards" = extern_weak hidden global i32*
@llvm.global_ctors = appending global [1 x { i32, void ()*, i8* }] [{ i32, void ()*, i8* } { i32 2, void ()* @sancov.module_ctor_trace_pc_guard, i8* null }]
@llvm.used = appending global [5 x i8*] [i8* bitcast (i8** @_ZZ4mainE2_B to i8*), i8* bitcast (void ()* @sancov.module_ctor_trace_pc_guard to i8*), i8* bitcast ([4 x i32]* @__sancov_gen_ to i8*), i8* bitcast ([4 x i32]* @__sancov_gen_.9 to i8*), i8* bitcast ([15 x i32]* @__sancov_gen_.10 to i8*)], section "llvm.metadata"

; Function Attrs: mustprogress ssp uwtable
define void @_Z18SpecFileGenerationPKcS0_S0_(i8* noundef %0, i8* noundef %1, i8* noundef %2) local_unnamed_addr #0 !dbg !1288 {
  %4 = load i32, i32* getelementptr inbounds ([4 x i32], [4 x i32]* @__sancov_gen_, i32 0, i32 0), align 4, !dbg !1296, !nosanitize !1297
  %5 = load i8*, i8** @__afl_area_ptr, align 8, !dbg !1296, !nosanitize !1297
  %6 = getelementptr i8, i8* %5, i32 %4, !dbg !1296
  %7 = load i8, i8* %6, align 1, !dbg !1296, !nosanitize !1297
  %8 = add i8 %7, 1, !dbg !1296
  %9 = icmp eq i8 %8, 0, !dbg !1296
  %10 = zext i1 %9 to i8, !dbg !1296
  %11 = add i8 %8, %10, !dbg !1296
  store i8 %11, i8* %6, align 1, !dbg !1296, !nosanitize !1297
  call void @llvm.dbg.value(metadata i8* %0, metadata !1292, metadata !DIExpression()), !dbg !1298
  call void @llvm.dbg.value(metadata i8* %1, metadata !1293, metadata !DIExpression()), !dbg !1298
  call void @llvm.dbg.value(metadata i8* %2, metadata !1294, metadata !DIExpression()), !dbg !1298
  %12 = tail call %struct.__sFILE* @"\01_fopen"(i8* noundef %1, i8* noundef getelementptr inbounds ([2 x i8], [2 x i8]* @.str, i64 0, i64 0)), !dbg !1299
  call void @llvm.dbg.value(metadata %struct.__sFILE* %12, metadata !1295, metadata !DIExpression()), !dbg !1298
  %13 = icmp eq %struct.__sFILE* %12, null, !dbg !1300
  br i1 %13, label %28, label %14, !dbg !1302

14:                                               ; preds = %3
  %15 = load i32, i32* inttoptr (i64 add (i64 ptrtoint ([4 x i32]* @__sancov_gen_ to i64), i64 4) to i32*), align 4, !dbg !1303, !nosanitize !1297
  %16 = load i8*, i8** @__afl_area_ptr, align 8, !dbg !1303, !nosanitize !1297
  %17 = getelementptr i8, i8* %16, i32 %15, !dbg !1303
  %18 = load i8, i8* %17, align 1, !dbg !1303, !nosanitize !1297
  %19 = add i8 %18, 1, !dbg !1303
  %20 = icmp eq i8 %19, 0, !dbg !1303
  %21 = zext i1 %20 to i8, !dbg !1303
  %22 = add i8 %19, %21, !dbg !1303
  store i8 %22, i8* %17, align 1, !dbg !1303, !nosanitize !1297
  %23 = tail call i32 (%struct.__sFILE*, i8*, ...) @fprintf(%struct.__sFILE* noundef nonnull %12, i8* noundef getelementptr inbounds ([4 x i8], [4 x i8]* @.str.1, i64 0, i64 0), i8* noundef %2), !dbg !1303
  %24 = tail call i64 @fwrite(i8* getelementptr inbounds ([3 x i8], [3 x i8]* @.str.2, i64 0, i64 0), i64 2, i64 1, %struct.__sFILE* nonnull %12), !dbg !1305
  %25 = tail call i32 (%struct.__sFILE*, i8*, ...) @fprintf(%struct.__sFILE* noundef nonnull %12, i8* noundef getelementptr inbounds ([4 x i8], [4 x i8]* @.str.1, i64 0, i64 0), i8* noundef %0), !dbg !1306
  %26 = tail call i64 @fwrite(i8* getelementptr inbounds ([3 x i8], [3 x i8]* @.str.3, i64 0, i64 0), i64 2, i64 1, %struct.__sFILE* nonnull %12), !dbg !1307
  %27 = tail call i32 @fclose(%struct.__sFILE* noundef nonnull %12), !dbg !1308
  br label %38, !dbg !1309

28:                                               ; preds = %3
  %29 = load i32, i32* inttoptr (i64 add (i64 ptrtoint ([4 x i32]* @__sancov_gen_ to i64), i64 8) to i32*), align 4, !dbg !1310, !nosanitize !1297
  %30 = load i8*, i8** @__afl_area_ptr, align 8, !dbg !1310, !nosanitize !1297
  %31 = getelementptr i8, i8* %30, i32 %29, !dbg !1310
  %32 = load i8, i8* %31, align 1, !dbg !1310, !nosanitize !1297
  %33 = add i8 %32, 1, !dbg !1310
  %34 = icmp eq i8 %33, 0, !dbg !1310
  %35 = zext i1 %34 to i8, !dbg !1310
  %36 = add i8 %33, %35, !dbg !1310
  store i8 %36, i8* %31, align 1, !dbg !1310, !nosanitize !1297
  %37 = tail call i32 (i8*, ...) @printf(i8* noundef nonnull dereferenceable(1) getelementptr inbounds ([31 x i8], [31 x i8]* @.str.4, i64 0, i64 0), i8* noundef %1), !dbg !1310
  br label %38

38:                                               ; preds = %28, %14
  ret void, !dbg !1312
}

; Function Attrs: mustprogress nofree nosync nounwind readnone speculatable willreturn
declare void @llvm.dbg.declare(metadata, metadata, metadata) #1

; Function Attrs: argmemonly mustprogress nofree nosync nounwind willreturn
declare void @llvm.lifetime.start.p0i8(i64 immarg, i8* nocapture) #2

declare %struct.__sFILE* @"\01_fopen"(i8* noundef, i8* noundef) local_unnamed_addr #3

; Function Attrs: nofree nounwind
declare noundef i32 @fprintf(%struct.__sFILE* nocapture noundef, i8* nocapture noundef readonly, ...) local_unnamed_addr #4

; Function Attrs: nofree nounwind
declare !dbg !1313 noundef i32 @fclose(%struct.__sFILE* nocapture noundef) local_unnamed_addr #4

; Function Attrs: nofree nounwind
declare noundef i32 @printf(i8* nocapture noundef readonly, ...) local_unnamed_addr #4

; Function Attrs: argmemonly mustprogress nofree nosync nounwind willreturn
declare void @llvm.lifetime.end.p0i8(i64 immarg, i8* nocapture) #2

; Function Attrs: mustprogress nofree norecurse nosync nounwind readonly ssp uwtable willreturn
define noundef i8* @_Z9__memrchrPKcim(i8* noundef readonly %0, i32 noundef %1, i64 noundef %2) local_unnamed_addr #5 !dbg !1314 {
  %4 = load i32, i32* getelementptr inbounds ([4 x i32], [4 x i32]* @__sancov_gen_.9, i32 0, i32 0), align 4, !dbg !1322, !nosanitize !1297
  %5 = load i8*, i8** @__afl_area_ptr, align 8, !dbg !1322, !nosanitize !1297
  %6 = getelementptr i8, i8* %5, i32 %4, !dbg !1322
  %7 = load i8, i8* %6, align 1, !dbg !1322, !nosanitize !1297
  %8 = add i8 %7, 1, !dbg !1322
  %9 = icmp eq i8 %8, 0, !dbg !1322
  %10 = zext i1 %9 to i8, !dbg !1322
  %11 = add i8 %8, %10, !dbg !1322
  store i8 %11, i8* %6, align 1, !dbg !1322, !nosanitize !1297
  call void @llvm.dbg.value(metadata i8* %0, metadata !1318, metadata !DIExpression()), !dbg !1323
  call void @llvm.dbg.value(metadata i32 %1, metadata !1319, metadata !DIExpression()), !dbg !1323
  call void @llvm.dbg.value(metadata i64 %2, metadata !1320, metadata !DIExpression()), !dbg !1323
  call void @llvm.dbg.value(metadata i8* %0, metadata !1321, metadata !DIExpression()), !dbg !1323
  %12 = and i32 %1, 255, !dbg !1324
  call void @llvm.dbg.value(metadata i32 %12, metadata !1319, metadata !DIExpression()), !dbg !1323
  br label %13, !dbg !1325

13:                                               ; preds = %31, %3
  %14 = phi i64 [ %2, %3 ], [ %15, %31 ]
  call void @llvm.dbg.value(metadata i64 %14, metadata !1320, metadata !DIExpression()), !dbg !1323
  %15 = add i64 %14, -1, !dbg !1326
  call void @llvm.dbg.value(metadata i64 %15, metadata !1320, metadata !DIExpression()), !dbg !1323
  %16 = icmp eq i64 %14, 0, !dbg !1327
  br i1 %16, label %17, label %26, !dbg !1325

17:                                               ; preds = %13
  %18 = load i32, i32* inttoptr (i64 add (i64 ptrtoint ([4 x i32]* @__sancov_gen_.9 to i64), i64 4) to i32*), align 4, !dbg !1325, !nosanitize !1297
  %19 = load i8*, i8** @__afl_area_ptr, align 8, !dbg !1325, !nosanitize !1297
  %20 = getelementptr i8, i8* %19, i32 %18, !dbg !1325
  %21 = load i8, i8* %20, align 1, !dbg !1325, !nosanitize !1297
  %22 = add i8 %21, 1, !dbg !1325
  %23 = icmp eq i8 %22, 0, !dbg !1325
  %24 = zext i1 %23 to i8, !dbg !1325
  %25 = add i8 %22, %24, !dbg !1325
  store i8 %25, i8* %20, align 1, !dbg !1325, !nosanitize !1297
  br label %50, !dbg !1325

26:                                               ; preds = %13
  %27 = getelementptr inbounds i8, i8* %0, i64 %15, !dbg !1328
  %28 = load i8, i8* %27, align 1, !dbg !1328, !tbaa !1330
  %29 = sext i8 %28 to i32, !dbg !1328
  %30 = icmp eq i32 %12, %29, !dbg !1333
  br i1 %30, label %40, label %31, !dbg !1334, !llvm.loop !1335

31:                                               ; preds = %26
  %32 = load i32, i32* inttoptr (i64 add (i64 ptrtoint ([4 x i32]* @__sancov_gen_.9 to i64), i64 8) to i32*), align 4, !dbg !1334, !nosanitize !1297
  %33 = load i8*, i8** @__afl_area_ptr, align 8, !dbg !1334, !nosanitize !1297
  %34 = getelementptr i8, i8* %33, i32 %32, !dbg !1334
  %35 = load i8, i8* %34, align 1, !dbg !1334, !nosanitize !1297
  %36 = add i8 %35, 1, !dbg !1334
  %37 = icmp eq i8 %36, 0, !dbg !1334
  %38 = zext i1 %37 to i8, !dbg !1334
  %39 = add i8 %36, %38, !dbg !1334
  store i8 %39, i8* %34, align 1, !dbg !1334, !nosanitize !1297
  br label %13, !dbg !1334

40:                                               ; preds = %26
  %41 = load i32, i32* inttoptr (i64 add (i64 ptrtoint ([4 x i32]* @__sancov_gen_.9 to i64), i64 12) to i32*), align 4, !dbg !1328, !nosanitize !1297
  %42 = load i8*, i8** @__afl_area_ptr, align 8, !dbg !1328, !nosanitize !1297
  %43 = getelementptr i8, i8* %42, i32 %41, !dbg !1328
  %44 = load i8, i8* %43, align 1, !dbg !1328, !nosanitize !1297
  %45 = add i8 %44, 1, !dbg !1328
  %46 = icmp eq i8 %45, 0, !dbg !1328
  %47 = zext i1 %46 to i8, !dbg !1328
  %48 = add i8 %45, %47, !dbg !1328
  store i8 %48, i8* %43, align 1, !dbg !1328, !nosanitize !1297
  %49 = getelementptr inbounds i8, i8* %0, i64 %15, !dbg !1328
  br label %50, !dbg !1338

50:                                               ; preds = %17, %40
  %51 = phi i8* [ %49, %40 ], [ null, %17 ], !dbg !1323
  ret i8* %51, !dbg !1338
}

; Function Attrs: mustprogress norecurse ssp uwtable
define noundef i32 @main() local_unnamed_addr #6 !dbg !2 {
  %1 = alloca [1024 x i8], align 1
  %2 = load i32, i32* getelementptr inbounds ([15 x i32], [15 x i32]* @__sancov_gen_.10, i32 0, i32 0), align 4, !dbg !1339, !nosanitize !1297
  %3 = load i8*, i8** @__afl_area_ptr, align 8, !dbg !1339, !nosanitize !1297
  %4 = getelementptr i8, i8* %3, i32 %2, !dbg !1339
  %5 = load i8, i8* %4, align 1, !dbg !1339, !nosanitize !1297
  %6 = add i8 %5, 1, !dbg !1339
  %7 = icmp eq i8 %6, 0, !dbg !1339
  %8 = zext i1 %7 to i8, !dbg !1339
  %9 = add i8 %6, %8, !dbg !1339
  store i8 %9, i8* %4, align 1, !dbg !1339, !nosanitize !1297
  %10 = getelementptr inbounds [1024 x i8], [1024 x i8]* %1, i64 0, i64 0
  %11 = getelementptr inbounds [1024 x i8], [1024 x i8]* %1, i64 0, i64 2
  %12 = getelementptr inbounds [1024 x i8], [1024 x i8]* %1, i64 0, i64 1
  store i8* getelementptr inbounds ([23 x i8], [23 x i8]* @.str.5, i64 0, i64 0), i8** @_ZZ4mainE2_B, align 8, !dbg !1340, !tbaa !1342
  %13 = load i32, i32* @__afl_connected, align 4, !dbg !1340, !tbaa !1344
  %14 = icmp eq i32 %13, 0, !dbg !1340
  %15 = select i1 %14, i32 1, i32 1000, !dbg !1340
  %16 = select i1 %14, i32* inttoptr (i64 add (i64 ptrtoint ([15 x i32]* @__sancov_gen_.10 to i64), i64 28) to i32*), i32* inttoptr (i64 add (i64 ptrtoint ([15 x i32]* @__sancov_gen_.10 to i64), i64 32) to i32*), !dbg !1340
  %17 = load i8*, i8** @__afl_area_ptr, align 8, !dbg !1340, !nosanitize !1297
  %18 = load i32, i32* %16, align 4, !dbg !1340, !nosanitize !1297
  %19 = getelementptr i8, i8* %17, i32 %18, !dbg !1340
  %20 = load i8, i8* %19, align 1, !dbg !1340, !nosanitize !1297
  %21 = add i8 %20, 1, !dbg !1340
  %22 = icmp eq i8 %21, 0, !dbg !1340
  %23 = zext i1 %22 to i8, !dbg !1340
  %24 = add i8 %21, %23, !dbg !1340
  store i8 %24, i8* %19, align 1, !dbg !1340, !nosanitize !1297
  %25 = call noundef i32 @"\01___afl_persistent_loop"(i32 noundef %15), !dbg !1340
  %26 = icmp eq i32 %25, 0, !dbg !1346
  br i1 %26, label %28, label %27, !dbg !1347

27:                                               ; preds = %0
  br label %37, !dbg !1347

28:                                               ; preds = %0
  %29 = load i32, i32* inttoptr (i64 add (i64 ptrtoint ([15 x i32]* @__sancov_gen_.10 to i64), i64 4) to i32*), align 4, !dbg !1347, !nosanitize !1297
  %30 = load i8*, i8** @__afl_area_ptr, align 8, !dbg !1347, !nosanitize !1297
  %31 = getelementptr i8, i8* %30, i32 %29, !dbg !1347
  %32 = load i8, i8* %31, align 1, !dbg !1347, !nosanitize !1297
  %33 = add i8 %32, 1, !dbg !1347
  %34 = icmp eq i8 %33, 0, !dbg !1347
  %35 = zext i1 %34 to i8, !dbg !1347
  %36 = add i8 %33, %35, !dbg !1347
  store i8 %36, i8* %31, align 1, !dbg !1347, !nosanitize !1297
  br label %128, !dbg !1347

37:                                               ; preds = %110, %27
  call void @llvm.lifetime.start.p0i8(i64 1024, i8* nonnull %10) #10, !dbg !1348
  call void @llvm.dbg.declare(metadata [1024 x i8]* %1, metadata !1266, metadata !DIExpression()), !dbg !1349
  %38 = load %struct.__sFILE*, %struct.__sFILE** @__stdinp, align 8, !dbg !1350, !tbaa !1342
  %39 = call i8* @fgets(i8* noundef nonnull %10, i32 noundef 1024, %struct.__sFILE* noundef %38), !dbg !1352
  %40 = icmp eq i8* %39, null, !dbg !1353
  br i1 %40, label %77, label %41, !dbg !1354

41:                                               ; preds = %37
  call void @llvm.dbg.value(metadata i64 3, metadata !1320, metadata !DIExpression()), !dbg !1355
  call void @llvm.dbg.value(metadata i64 2, metadata !1320, metadata !DIExpression()), !dbg !1355
  %42 = load i8, i8* %11, align 1, !dbg !1357, !tbaa !1330
  %43 = icmp ne i8 %42, 97, !dbg !1358
  %44 = load i8, i8* %12, align 1
  %45 = icmp ne i8 %44, 97
  %46 = select i1 %43, i1 %45, i1 false, !dbg !1359
  %47 = select i1 %43, i32* inttoptr (i64 add (i64 ptrtoint ([15 x i32]* @__sancov_gen_.10 to i64), i64 36) to i32*), i32* inttoptr (i64 add (i64 ptrtoint ([15 x i32]* @__sancov_gen_.10 to i64), i64 40) to i32*), !dbg !1355
  %48 = load i8*, i8** @__afl_area_ptr, align 8, !dbg !1355, !nosanitize !1297
  %49 = load i32, i32* %47, align 4, !dbg !1355, !nosanitize !1297
  %50 = getelementptr i8, i8* %48, i32 %49, !dbg !1355
  %51 = load i8, i8* %50, align 1, !dbg !1355, !nosanitize !1297
  %52 = add i8 %51, 1, !dbg !1355
  %53 = icmp eq i8 %52, 0, !dbg !1355
  %54 = zext i1 %53 to i8, !dbg !1355
  %55 = add i8 %52, %54, !dbg !1355
  store i8 %55, i8* %50, align 1, !dbg !1355, !nosanitize !1297
  call void @llvm.dbg.value(metadata i64 2, metadata !1320, metadata !DIExpression()), !dbg !1355
  call void @llvm.dbg.value(metadata i64 1, metadata !1320, metadata !DIExpression()), !dbg !1355
  %56 = load i8, i8* %10, align 1
  %57 = icmp eq i8 %56, 97
  %58 = select i1 %46, i1 %57, i1 false, !dbg !1359
  %59 = select i1 %46, i32* inttoptr (i64 add (i64 ptrtoint ([15 x i32]* @__sancov_gen_.10 to i64), i64 44) to i32*), i32* inttoptr (i64 add (i64 ptrtoint ([15 x i32]* @__sancov_gen_.10 to i64), i64 48) to i32*), !dbg !1355
  %60 = load i8*, i8** @__afl_area_ptr, align 8, !dbg !1355, !nosanitize !1297
  %61 = load i32, i32* %59, align 4, !dbg !1355, !nosanitize !1297
  %62 = getelementptr i8, i8* %60, i32 %61, !dbg !1355
  %63 = load i8, i8* %62, align 1, !dbg !1355, !nosanitize !1297
  %64 = add i8 %63, 1, !dbg !1355
  %65 = icmp eq i8 %64, 0, !dbg !1355
  %66 = zext i1 %65 to i8, !dbg !1355
  %67 = add i8 %64, %66, !dbg !1355
  store i8 %67, i8* %62, align 1, !dbg !1355, !nosanitize !1297
  call void @llvm.dbg.value(metadata i64 1, metadata !1320, metadata !DIExpression()), !dbg !1355
  call void @llvm.dbg.value(metadata i64 0, metadata !1320, metadata !DIExpression()), !dbg !1355
  br i1 %58, label %86, label %68, !dbg !1359, !llvm.loop !1360

68:                                               ; preds = %41
  %69 = load i32, i32* inttoptr (i64 add (i64 ptrtoint ([15 x i32]* @__sancov_gen_.10 to i64), i64 8) to i32*), align 4, !dbg !1359, !nosanitize !1297
  %70 = load i8*, i8** @__afl_area_ptr, align 8, !dbg !1359, !nosanitize !1297
  %71 = getelementptr i8, i8* %70, i32 %69, !dbg !1359
  %72 = load i8, i8* %71, align 1, !dbg !1359, !nosanitize !1297
  %73 = add i8 %72, 1, !dbg !1359
  %74 = icmp eq i8 %73, 0, !dbg !1359
  %75 = zext i1 %74 to i8, !dbg !1359
  %76 = add i8 %73, %75, !dbg !1359
  store i8 %76, i8* %71, align 1, !dbg !1359, !nosanitize !1297
  br label %95, !dbg !1359

77:                                               ; preds = %37
  %78 = load i32, i32* inttoptr (i64 add (i64 ptrtoint ([15 x i32]* @__sancov_gen_.10 to i64), i64 12) to i32*), align 4, !dbg !1363, !nosanitize !1297
  %79 = load i8*, i8** @__afl_area_ptr, align 8, !dbg !1363, !nosanitize !1297
  %80 = getelementptr i8, i8* %79, i32 %78, !dbg !1363
  %81 = load i8, i8* %80, align 1, !dbg !1363, !nosanitize !1297
  %82 = add i8 %81, 1, !dbg !1363
  %83 = icmp eq i8 %82, 0, !dbg !1363
  %84 = zext i1 %83 to i8, !dbg !1363
  %85 = add i8 %82, %84, !dbg !1363
  store i8 %85, i8* %80, align 1, !dbg !1363, !nosanitize !1297
  call void @llvm.lifetime.end.p0i8(i64 1024, i8* nonnull %10) #10, !dbg !1363
  br label %128

86:                                               ; preds = %41
  %87 = load i32, i32* inttoptr (i64 add (i64 ptrtoint ([15 x i32]* @__sancov_gen_.10 to i64), i64 16) to i32*), align 4, !dbg !1364, !nosanitize !1297
  %88 = load i8*, i8** @__afl_area_ptr, align 8, !dbg !1364, !nosanitize !1297
  %89 = getelementptr i8, i8* %88, i32 %87, !dbg !1364
  %90 = load i8, i8* %89, align 1, !dbg !1364, !nosanitize !1297
  %91 = add i8 %90, 1, !dbg !1364
  %92 = icmp eq i8 %91, 0, !dbg !1364
  %93 = zext i1 %92 to i8, !dbg !1364
  %94 = add i8 %91, %93, !dbg !1364
  store i8 %94, i8* %89, align 1, !dbg !1364, !nosanitize !1297
  call void @llvm.dbg.value(metadata i8* %11, metadata !1271, metadata !DIExpression()), !dbg !1364
  call void @llvm.dbg.value(metadata i8* getelementptr inbounds ([14 x i8], [14 x i8]* @.str.6, i64 0, i64 0), metadata !1272, metadata !DIExpression()), !dbg !1364
  call void @llvm.dbg.value(metadata i8* getelementptr inbounds ([48 x i8], [48 x i8]* @.str.7, i64 0, i64 0), metadata !1273, metadata !DIExpression()), !dbg !1364
  call void @_Z18SpecFileGenerationPKcS0_S0_(i8* noundef getelementptr inbounds ([19 x i8], [19 x i8]* @.str.8, i64 0, i64 0), i8* noundef getelementptr inbounds ([14 x i8], [14 x i8]* @.str.6, i64 0, i64 0), i8* noundef getelementptr inbounds ([48 x i8], [48 x i8]* @.str.7, i64 0, i64 0)), !dbg !1365
  br label %95, !dbg !1368

95:                                               ; preds = %68, %86
  call void @llvm.lifetime.end.p0i8(i64 1024, i8* nonnull %10) #10, !dbg !1363
  store i8* getelementptr inbounds ([23 x i8], [23 x i8]* @.str.5, i64 0, i64 0), i8** @_ZZ4mainE2_B, align 8, !dbg !1340, !tbaa !1342
  %96 = load i32, i32* @__afl_connected, align 4, !dbg !1340, !tbaa !1344
  %97 = icmp eq i32 %96, 0, !dbg !1340
  %98 = select i1 %97, i32 1, i32 1000, !dbg !1340
  %99 = select i1 %97, i32* inttoptr (i64 add (i64 ptrtoint ([15 x i32]* @__sancov_gen_.10 to i64), i64 52) to i32*), i32* inttoptr (i64 add (i64 ptrtoint ([15 x i32]* @__sancov_gen_.10 to i64), i64 56) to i32*), !dbg !1340
  %100 = load i8*, i8** @__afl_area_ptr, align 8, !dbg !1340, !nosanitize !1297
  %101 = load i32, i32* %99, align 4, !dbg !1340, !nosanitize !1297
  %102 = getelementptr i8, i8* %100, i32 %101, !dbg !1340
  %103 = load i8, i8* %102, align 1, !dbg !1340, !nosanitize !1297
  %104 = add i8 %103, 1, !dbg !1340
  %105 = icmp eq i8 %104, 0, !dbg !1340
  %106 = zext i1 %105 to i8, !dbg !1340
  %107 = add i8 %104, %106, !dbg !1340
  store i8 %107, i8* %102, align 1, !dbg !1340, !nosanitize !1297
  %108 = call noundef i32 @"\01___afl_persistent_loop"(i32 noundef %98), !dbg !1340
  %109 = icmp eq i32 %108, 0, !dbg !1346
  br i1 %109, label %119, label %110, !dbg !1347

110:                                              ; preds = %95
  %111 = load i32, i32* inttoptr (i64 add (i64 ptrtoint ([15 x i32]* @__sancov_gen_.10 to i64), i64 20) to i32*), align 4, !dbg !1347, !nosanitize !1297
  %112 = load i8*, i8** @__afl_area_ptr, align 8, !dbg !1347, !nosanitize !1297
  %113 = getelementptr i8, i8* %112, i32 %111, !dbg !1347
  %114 = load i8, i8* %113, align 1, !dbg !1347, !nosanitize !1297
  %115 = add i8 %114, 1, !dbg !1347
  %116 = icmp eq i8 %115, 0, !dbg !1347
  %117 = zext i1 %116 to i8, !dbg !1347
  %118 = add i8 %115, %117, !dbg !1347
  store i8 %118, i8* %113, align 1, !dbg !1347, !nosanitize !1297
  br label %37, !dbg !1347

119:                                              ; preds = %95
  %120 = load i32, i32* inttoptr (i64 add (i64 ptrtoint ([15 x i32]* @__sancov_gen_.10 to i64), i64 24) to i32*), align 4, !dbg !1347, !nosanitize !1297
  %121 = load i8*, i8** @__afl_area_ptr, align 8, !dbg !1347, !nosanitize !1297
  %122 = getelementptr i8, i8* %121, i32 %120, !dbg !1347
  %123 = load i8, i8* %122, align 1, !dbg !1347, !nosanitize !1297
  %124 = add i8 %123, 1, !dbg !1347
  %125 = icmp eq i8 %124, 0, !dbg !1347
  %126 = zext i1 %125 to i8, !dbg !1347
  %127 = add i8 %124, %126, !dbg !1347
  store i8 %127, i8* %122, align 1, !dbg !1347, !nosanitize !1297
  br label %128, !dbg !1347

128:                                              ; preds = %119, %28, %77
  %129 = phi i32 [ 1, %77 ], [ 0, %28 ], [ 0, %119 ], !dbg !1369
  ret i32 %129, !dbg !1370
}

declare noundef i32 @"\01___afl_persistent_loop"(i32 noundef) local_unnamed_addr #3

; Function Attrs: nofree nounwind
declare !dbg !1371 noundef i8* @fgets(i8* noundef, i32 noundef, %struct.__sFILE* nocapture noundef) local_unnamed_addr #4

; Function Attrs: nofree nosync nounwind readnone speculatable willreturn
declare void @llvm.dbg.value(metadata, metadata, metadata) #7

; Function Attrs: nofree nounwind
declare noundef i64 @fwrite(i8* nocapture noundef, i64 noundef, i64 noundef, %struct.__sFILE* nocapture noundef) local_unnamed_addr #8

declare void @__sanitizer_cov_trace_pc_guard_init(i32**, i32**)

; Function Attrs: nounwind uwtable
define internal void @sancov.module_ctor_trace_pc_guard() #9 {
  call void @__sanitizer_cov_trace_pc_guard_init(i32** @"\01section$start$__DATA$__sancov_guards", i32** @"\01section$end$__DATA$__sancov_guards")
  ret void
}

attributes #0 = { mustprogress ssp uwtable "frame-pointer"="non-leaf" "min-legal-vector-width"="0" "no-trapping-math"="true" "stack-protector-buffer-size"="8" "target-cpu"="apple-m1" "target-features"="+aes,+crc,+crypto,+dotprod,+fp-armv8,+fp16fml,+fullfp16,+lse,+neon,+ras,+rcpc,+rdm,+sha2,+v8.5a,+zcm,+zcz" }
attributes #1 = { mustprogress nofree nosync nounwind readnone speculatable willreturn }
attributes #2 = { argmemonly mustprogress nofree nosync nounwind willreturn }
attributes #3 = { "frame-pointer"="non-leaf" "no-trapping-math"="true" "stack-protector-buffer-size"="8" "target-cpu"="apple-m1" "target-features"="+aes,+crc,+crypto,+dotprod,+fp-armv8,+fp16fml,+fullfp16,+lse,+neon,+ras,+rcpc,+rdm,+sha2,+v8.5a,+zcm,+zcz" }
attributes #4 = { nofree nounwind "frame-pointer"="non-leaf" "no-trapping-math"="true" "stack-protector-buffer-size"="8" "target-cpu"="apple-m1" "target-features"="+aes,+crc,+crypto,+dotprod,+fp-armv8,+fp16fml,+fullfp16,+lse,+neon,+ras,+rcpc,+rdm,+sha2,+v8.5a,+zcm,+zcz" }
attributes #5 = { mustprogress nofree norecurse nosync nounwind readonly ssp uwtable willreturn "frame-pointer"="non-leaf" "min-legal-vector-width"="0" "no-trapping-math"="true" "stack-protector-buffer-size"="8" "target-cpu"="apple-m1" "target-features"="+aes,+crc,+crypto,+dotprod,+fp-armv8,+fp16fml,+fullfp16,+lse,+neon,+ras,+rcpc,+rdm,+sha2,+v8.5a,+zcm,+zcz" }
attributes #6 = { mustprogress norecurse ssp uwtable "frame-pointer"="non-leaf" "min-legal-vector-width"="0" "no-trapping-math"="true" "stack-protector-buffer-size"="8" "target-cpu"="apple-m1" "target-features"="+aes,+crc,+crypto,+dotprod,+fp-armv8,+fp16fml,+fullfp16,+lse,+neon,+ras,+rcpc,+rdm,+sha2,+v8.5a,+zcm,+zcz" }
attributes #7 = { nofree nosync nounwind readnone speculatable willreturn }
attributes #8 = { nofree nounwind }
attributes #9 = { nounwind uwtable "frame-pointer"="non-leaf" }
attributes #10 = { nounwind }

!llvm.dbg.cu = !{!7}
!llvm.module.flags = !{!1277, !1278, !1279, !1280, !1281, !1282, !1283, !1284, !1285, !1286}
!llvm.ident = !{!1287}

!0 = !DIGlobalVariableExpression(var: !1, expr: !DIExpression())
!1 = distinct !DIGlobalVariable(name: "_B", scope: !2, file: !3, line: 32, type: !1274, isLocal: true, isDefinition: true)
!2 = distinct !DISubprogram(name: "main", scope: !3, file: !3, line: 30, type: !4, scopeLine: 30, flags: DIFlagPrototyped | DIFlagAllCallsDescribed, spFlags: DISPFlagDefinition | DISPFlagOptimized, unit: !7, retainedNodes: !1265)
!3 = !DIFile(filename: "./myTestCases/main.cpp", directory: "/Users/shuangxiangkan/Fuzz/AFLplusplus")
!4 = !DISubroutineType(types: !5)
!5 = !{!6}
!6 = !DIBasicType(name: "int", size: 32, encoding: DW_ATE_signed)
!7 = distinct !DICompileUnit(language: DW_LANG_C_plus_plus_14, file: !8, producer: "Homebrew clang version 14.0.6", isOptimized: true, runtimeVersion: 0, emissionKind: FullDebug, retainedTypes: !9, globals: !15, imports: !16, splitDebugInlining: false, nameTableKind: None, sysroot: "/Library/Developer/CommandLineTools/SDKs/MacOSX13.sdk", sdk: "MacOSX13.sdk")
!8 = !DIFile(filename: "myTestCases/main.cpp", directory: "/Users/shuangxiangkan/Fuzz/AFLplusplus")
!9 = !{!10, !11, !13}
!10 = !DIBasicType(name: "unsigned char", size: 8, encoding: DW_ATE_unsigned_char)
!11 = !DIDerivedType(tag: DW_TAG_pointer_type, baseType: !12, size: 64)
!12 = !DIBasicType(name: "char", size: 8, encoding: DW_ATE_signed_char)
!13 = !DIDerivedType(tag: DW_TAG_pointer_type, baseType: !14, size: 64)
!14 = !DIDerivedType(tag: DW_TAG_const_type, baseType: !12)
!15 = !{!0}
!16 = !{!17, !25, !27, !29, !31, !33, !35, !37, !39, !41, !43, !45, !47, !49, !51, !56, !60, !63, !67, !70, !74, !78, !82, !85, !87, !89, !91, !93, !95, !97, !99, !101, !103, !105, !107, !109, !111, !113, !115, !121, !125, !128, !131, !135, !139, !143, !145, !152, !158, !164, !169, !173, !177, !181, !186, !191, !195, !199, !203, !207, !211, !213, !217, !223, !227, !231, !235, !239, !244, !248, !250, !254, !256, !265, !269, !274, !278, !282, !286, !290, !292, !296, !302, !306, !310, !316, !321, !334, !341, !343, !346, !348, !349, !353, !355, !357, !361, !363, !365, !367, !369, !371, !373, !375, !380, !384, !386, !388, !393, !398, !400, !402, !404, !406, !408, !410, !412, !414, !416, !418, !420, !422, !424, !426, !428, !430, !434, !436, !438, !440, !444, !446, !450, !452, !454, !456, !458, !462, !464, !466, !470, !472, !474, !478, !480, !484, !486, !488, !492, !494, !496, !498, !500, !502, !504, !508, !510, !512, !514, !516, !518, !520, !522, !526, !530, !532, !534, !536, !538, !540, !542, !544, !546, !548, !550, !552, !554, !556, !558, !560, !562, !564, !566, !568, !572, !574, !576, !578, !582, !584, !588, !590, !592, !594, !596, !600, !602, !606, !608, !610, !612, !614, !618, !620, !622, !626, !628, !630, !632, !634, !639, !641, !645, !649, !651, !653, !657, !661, !665, !667, !671, !676, !680, !684, !686, !688, !690, !692, !694, !696, !700, !704, !709, !714, !715, !719, !734, !738, !742, !747, !752, !758, !764, !768, !770, !774, !829, !830, !831, !837, !839, !843, !847, !851, !853, !857, !861, !865, !873, !875, !879, !883, !887, !889, !893, !897, !901, !903, !905, !907, !911, !915, !920, !924, !930, !934, !938, !940, !942, !944, !948, !952, !956, !958, !960, !964, !968, !970, !974, !978, !980, !982, !984, !986, !991, !996, !1001, !1006, !1008, !1011, !1013, !1015, !1017, !1019, !1021, !1023, !1025, !1027, !1029, !1033, !1037, !1041, !1043, !1047, !1051, !1053, !1054, !1055, !1056, !1057, !1062, !1064, !1068, !1072, !1076, !1080, !1082, !1086, !1090, !1094, !1098, !1102, !1106, !1108, !1110, !1114, !1119, !1123, !1127, !1131, !1135, !1139, !1143, !1147, !1151, !1153, !1155, !1159, !1161, !1165, !1169, !1174, !1176, !1178, !1180, !1184, !1188, !1192, !1194, !1198, !1200, !1202, !1204, !1206, !1210, !1214, !1216, !1222, !1227, !1231, !1235, !1240, !1245, !1249, !1253, !1257, !1261, !1263}
!17 = !DIImportedEntity(tag: DW_TAG_imported_declaration, scope: !18, entity: !20, file: !24, line: 103)
!18 = !DINamespace(name: "__1", scope: !19, exportSymbols: true)
!19 = !DINamespace(name: "std", scope: null)
!20 = !DISubprogram(name: "isalnum", linkageName: "_Z7isalnumi", scope: !21, file: !21, line: 212, type: !22, flags: DIFlagPrototyped, spFlags: DISPFlagOptimized)
!21 = !DIFile(filename: "/Library/Developer/CommandLineTools/SDKs/MacOSX13.sdk/usr/include/_ctype.h", directory: "")
!22 = !DISubroutineType(types: !23)
!23 = !{!6, !6}
!24 = !DIFile(filename: "/opt/homebrew/Cellar/llvm@14/14.0.6/bin/../include/c++/v1/cctype", directory: "")
!25 = !DIImportedEntity(tag: DW_TAG_imported_declaration, scope: !18, entity: !26, file: !24, line: 104)
!26 = !DISubprogram(name: "isalpha", linkageName: "_Z7isalphai", scope: !21, file: !21, line: 218, type: !22, flags: DIFlagPrototyped, spFlags: DISPFlagOptimized)
!27 = !DIImportedEntity(tag: DW_TAG_imported_declaration, scope: !18, entity: !28, file: !24, line: 105)
!28 = !DISubprogram(name: "isblank", linkageName: "_Z7isblanki", scope: !21, file: !21, line: 224, type: !22, flags: DIFlagPrototyped, spFlags: DISPFlagOptimized)
!29 = !DIImportedEntity(tag: DW_TAG_imported_declaration, scope: !18, entity: !30, file: !24, line: 106)
!30 = !DISubprogram(name: "iscntrl", linkageName: "_Z7iscntrli", scope: !21, file: !21, line: 230, type: !22, flags: DIFlagPrototyped, spFlags: DISPFlagOptimized)
!31 = !DIImportedEntity(tag: DW_TAG_imported_declaration, scope: !18, entity: !32, file: !24, line: 107)
!32 = !DISubprogram(name: "isdigit", linkageName: "_Z7isdigiti", scope: !21, file: !21, line: 237, type: !22, flags: DIFlagPrototyped, spFlags: DISPFlagOptimized)
!33 = !DIImportedEntity(tag: DW_TAG_imported_declaration, scope: !18, entity: !34, file: !24, line: 108)
!34 = !DISubprogram(name: "isgraph", linkageName: "_Z7isgraphi", scope: !21, file: !21, line: 243, type: !22, flags: DIFlagPrototyped, spFlags: DISPFlagOptimized)
!35 = !DIImportedEntity(tag: DW_TAG_imported_declaration, scope: !18, entity: !36, file: !24, line: 109)
!36 = !DISubprogram(name: "islower", linkageName: "_Z7isloweri", scope: !21, file: !21, line: 249, type: !22, flags: DIFlagPrototyped, spFlags: DISPFlagOptimized)
!37 = !DIImportedEntity(tag: DW_TAG_imported_declaration, scope: !18, entity: !38, file: !24, line: 110)
!38 = !DISubprogram(name: "isprint", linkageName: "_Z7isprinti", scope: !21, file: !21, line: 255, type: !22, flags: DIFlagPrototyped, spFlags: DISPFlagOptimized)
!39 = !DIImportedEntity(tag: DW_TAG_imported_declaration, scope: !18, entity: !40, file: !24, line: 111)
!40 = !DISubprogram(name: "ispunct", linkageName: "_Z7ispuncti", scope: !21, file: !21, line: 261, type: !22, flags: DIFlagPrototyped, spFlags: DISPFlagOptimized)
!41 = !DIImportedEntity(tag: DW_TAG_imported_declaration, scope: !18, entity: !42, file: !24, line: 112)
!42 = !DISubprogram(name: "isspace", linkageName: "_Z7isspacei", scope: !21, file: !21, line: 267, type: !22, flags: DIFlagPrototyped, spFlags: DISPFlagOptimized)
!43 = !DIImportedEntity(tag: DW_TAG_imported_declaration, scope: !18, entity: !44, file: !24, line: 113)
!44 = !DISubprogram(name: "isupper", linkageName: "_Z7isupperi", scope: !21, file: !21, line: 273, type: !22, flags: DIFlagPrototyped, spFlags: DISPFlagOptimized)
!45 = !DIImportedEntity(tag: DW_TAG_imported_declaration, scope: !18, entity: !46, file: !24, line: 114)
!46 = !DISubprogram(name: "isxdigit", linkageName: "_Z8isxdigiti", scope: !21, file: !21, line: 280, type: !22, flags: DIFlagPrototyped, spFlags: DISPFlagOptimized)
!47 = !DIImportedEntity(tag: DW_TAG_imported_declaration, scope: !18, entity: !48, file: !24, line: 115)
!48 = !DISubprogram(name: "tolower", linkageName: "_Z7toloweri", scope: !21, file: !21, line: 292, type: !22, flags: DIFlagPrototyped, spFlags: DISPFlagOptimized)
!49 = !DIImportedEntity(tag: DW_TAG_imported_declaration, scope: !18, entity: !50, file: !24, line: 116)
!50 = !DISubprogram(name: "toupper", linkageName: "_Z7toupperi", scope: !21, file: !21, line: 298, type: !22, flags: DIFlagPrototyped, spFlags: DISPFlagOptimized)
!51 = !DIImportedEntity(tag: DW_TAG_imported_declaration, scope: !18, entity: !52, file: !55, line: 152)
!52 = !DIDerivedType(tag: DW_TAG_typedef, name: "int8_t", file: !53, line: 30, baseType: !54)
!53 = !DIFile(filename: "/Library/Developer/CommandLineTools/SDKs/MacOSX13.sdk/usr/include/sys/_types/_int8_t.h", directory: "")
!54 = !DIBasicType(name: "signed char", size: 8, encoding: DW_ATE_signed_char)
!55 = !DIFile(filename: "/opt/homebrew/Cellar/llvm@14/14.0.6/bin/../include/c++/v1/cstdint", directory: "")
!56 = !DIImportedEntity(tag: DW_TAG_imported_declaration, scope: !18, entity: !57, file: !55, line: 153)
!57 = !DIDerivedType(tag: DW_TAG_typedef, name: "int16_t", file: !58, line: 30, baseType: !59)
!58 = !DIFile(filename: "/Library/Developer/CommandLineTools/SDKs/MacOSX13.sdk/usr/include/sys/_types/_int16_t.h", directory: "")
!59 = !DIBasicType(name: "short", size: 16, encoding: DW_ATE_signed)
!60 = !DIImportedEntity(tag: DW_TAG_imported_declaration, scope: !18, entity: !61, file: !55, line: 154)
!61 = !DIDerivedType(tag: DW_TAG_typedef, name: "int32_t", file: !62, line: 30, baseType: !6)
!62 = !DIFile(filename: "/Library/Developer/CommandLineTools/SDKs/MacOSX13.sdk/usr/include/sys/_types/_int32_t.h", directory: "")
!63 = !DIImportedEntity(tag: DW_TAG_imported_declaration, scope: !18, entity: !64, file: !55, line: 155)
!64 = !DIDerivedType(tag: DW_TAG_typedef, name: "int64_t", file: !65, line: 30, baseType: !66)
!65 = !DIFile(filename: "/Library/Developer/CommandLineTools/SDKs/MacOSX13.sdk/usr/include/sys/_types/_int64_t.h", directory: "")
!66 = !DIBasicType(name: "long long", size: 64, encoding: DW_ATE_signed)
!67 = !DIImportedEntity(tag: DW_TAG_imported_declaration, scope: !18, entity: !68, file: !55, line: 157)
!68 = !DIDerivedType(tag: DW_TAG_typedef, name: "uint8_t", file: !69, line: 31, baseType: !10)
!69 = !DIFile(filename: "/Library/Developer/CommandLineTools/SDKs/MacOSX13.sdk/usr/include/_types/_uint8_t.h", directory: "")
!70 = !DIImportedEntity(tag: DW_TAG_imported_declaration, scope: !18, entity: !71, file: !55, line: 158)
!71 = !DIDerivedType(tag: DW_TAG_typedef, name: "uint16_t", file: !72, line: 31, baseType: !73)
!72 = !DIFile(filename: "/Library/Developer/CommandLineTools/SDKs/MacOSX13.sdk/usr/include/_types/_uint16_t.h", directory: "")
!73 = !DIBasicType(name: "unsigned short", size: 16, encoding: DW_ATE_unsigned)
!74 = !DIImportedEntity(tag: DW_TAG_imported_declaration, scope: !18, entity: !75, file: !55, line: 159)
!75 = !DIDerivedType(tag: DW_TAG_typedef, name: "uint32_t", file: !76, line: 31, baseType: !77)
!76 = !DIFile(filename: "/Library/Developer/CommandLineTools/SDKs/MacOSX13.sdk/usr/include/_types/_uint32_t.h", directory: "")
!77 = !DIBasicType(name: "unsigned int", size: 32, encoding: DW_ATE_unsigned)
!78 = !DIImportedEntity(tag: DW_TAG_imported_declaration, scope: !18, entity: !79, file: !55, line: 160)
!79 = !DIDerivedType(tag: DW_TAG_typedef, name: "uint64_t", file: !80, line: 31, baseType: !81)
!80 = !DIFile(filename: "/Library/Developer/CommandLineTools/SDKs/MacOSX13.sdk/usr/include/_types/_uint64_t.h", directory: "")
!81 = !DIBasicType(name: "unsigned long long", size: 64, encoding: DW_ATE_unsigned)
!82 = !DIImportedEntity(tag: DW_TAG_imported_declaration, scope: !18, entity: !83, file: !55, line: 162)
!83 = !DIDerivedType(tag: DW_TAG_typedef, name: "int_least8_t", file: !84, line: 29, baseType: !52)
!84 = !DIFile(filename: "/Library/Developer/CommandLineTools/SDKs/MacOSX13.sdk/usr/include/stdint.h", directory: "")
!85 = !DIImportedEntity(tag: DW_TAG_imported_declaration, scope: !18, entity: !86, file: !55, line: 163)
!86 = !DIDerivedType(tag: DW_TAG_typedef, name: "int_least16_t", file: !84, line: 30, baseType: !57)
!87 = !DIImportedEntity(tag: DW_TAG_imported_declaration, scope: !18, entity: !88, file: !55, line: 164)
!88 = !DIDerivedType(tag: DW_TAG_typedef, name: "int_least32_t", file: !84, line: 31, baseType: !61)
!89 = !DIImportedEntity(tag: DW_TAG_imported_declaration, scope: !18, entity: !90, file: !55, line: 165)
!90 = !DIDerivedType(tag: DW_TAG_typedef, name: "int_least64_t", file: !84, line: 32, baseType: !64)
!91 = !DIImportedEntity(tag: DW_TAG_imported_declaration, scope: !18, entity: !92, file: !55, line: 167)
!92 = !DIDerivedType(tag: DW_TAG_typedef, name: "uint_least8_t", file: !84, line: 33, baseType: !68)
!93 = !DIImportedEntity(tag: DW_TAG_imported_declaration, scope: !18, entity: !94, file: !55, line: 168)
!94 = !DIDerivedType(tag: DW_TAG_typedef, name: "uint_least16_t", file: !84, line: 34, baseType: !71)
!95 = !DIImportedEntity(tag: DW_TAG_imported_declaration, scope: !18, entity: !96, file: !55, line: 169)
!96 = !DIDerivedType(tag: DW_TAG_typedef, name: "uint_least32_t", file: !84, line: 35, baseType: !75)
!97 = !DIImportedEntity(tag: DW_TAG_imported_declaration, scope: !18, entity: !98, file: !55, line: 170)
!98 = !DIDerivedType(tag: DW_TAG_typedef, name: "uint_least64_t", file: !84, line: 36, baseType: !79)
!99 = !DIImportedEntity(tag: DW_TAG_imported_declaration, scope: !18, entity: !100, file: !55, line: 172)
!100 = !DIDerivedType(tag: DW_TAG_typedef, name: "int_fast8_t", file: !84, line: 40, baseType: !52)
!101 = !DIImportedEntity(tag: DW_TAG_imported_declaration, scope: !18, entity: !102, file: !55, line: 173)
!102 = !DIDerivedType(tag: DW_TAG_typedef, name: "int_fast16_t", file: !84, line: 41, baseType: !57)
!103 = !DIImportedEntity(tag: DW_TAG_imported_declaration, scope: !18, entity: !104, file: !55, line: 174)
!104 = !DIDerivedType(tag: DW_TAG_typedef, name: "int_fast32_t", file: !84, line: 42, baseType: !61)
!105 = !DIImportedEntity(tag: DW_TAG_imported_declaration, scope: !18, entity: !106, file: !55, line: 175)
!106 = !DIDerivedType(tag: DW_TAG_typedef, name: "int_fast64_t", file: !84, line: 43, baseType: !64)
!107 = !DIImportedEntity(tag: DW_TAG_imported_declaration, scope: !18, entity: !108, file: !55, line: 177)
!108 = !DIDerivedType(tag: DW_TAG_typedef, name: "uint_fast8_t", file: !84, line: 44, baseType: !68)
!109 = !DIImportedEntity(tag: DW_TAG_imported_declaration, scope: !18, entity: !110, file: !55, line: 178)
!110 = !DIDerivedType(tag: DW_TAG_typedef, name: "uint_fast16_t", file: !84, line: 45, baseType: !71)
!111 = !DIImportedEntity(tag: DW_TAG_imported_declaration, scope: !18, entity: !112, file: !55, line: 179)
!112 = !DIDerivedType(tag: DW_TAG_typedef, name: "uint_fast32_t", file: !84, line: 46, baseType: !75)
!113 = !DIImportedEntity(tag: DW_TAG_imported_declaration, scope: !18, entity: !114, file: !55, line: 180)
!114 = !DIDerivedType(tag: DW_TAG_typedef, name: "uint_fast64_t", file: !84, line: 47, baseType: !79)
!115 = !DIImportedEntity(tag: DW_TAG_imported_declaration, scope: !18, entity: !116, file: !55, line: 182)
!116 = !DIDerivedType(tag: DW_TAG_typedef, name: "intptr_t", file: !117, line: 32, baseType: !118)
!117 = !DIFile(filename: "/Library/Developer/CommandLineTools/SDKs/MacOSX13.sdk/usr/include/sys/_types/_intptr_t.h", directory: "")
!118 = !DIDerivedType(tag: DW_TAG_typedef, name: "__darwin_intptr_t", file: !119, line: 27, baseType: !120)
!119 = !DIFile(filename: "/Library/Developer/CommandLineTools/SDKs/MacOSX13.sdk/usr/include/arm/_types.h", directory: "")
!120 = !DIBasicType(name: "long", size: 64, encoding: DW_ATE_signed)
!121 = !DIImportedEntity(tag: DW_TAG_imported_declaration, scope: !18, entity: !122, file: !55, line: 183)
!122 = !DIDerivedType(tag: DW_TAG_typedef, name: "uintptr_t", file: !123, line: 34, baseType: !124)
!123 = !DIFile(filename: "/Library/Developer/CommandLineTools/SDKs/MacOSX13.sdk/usr/include/sys/_types/_uintptr_t.h", directory: "")
!124 = !DIBasicType(name: "unsigned long", size: 64, encoding: DW_ATE_unsigned)
!125 = !DIImportedEntity(tag: DW_TAG_imported_declaration, scope: !18, entity: !126, file: !55, line: 185)
!126 = !DIDerivedType(tag: DW_TAG_typedef, name: "intmax_t", file: !127, line: 32, baseType: !120)
!127 = !DIFile(filename: "/Library/Developer/CommandLineTools/SDKs/MacOSX13.sdk/usr/include/_types/_intmax_t.h", directory: "")
!128 = !DIImportedEntity(tag: DW_TAG_imported_declaration, scope: !18, entity: !129, file: !55, line: 186)
!129 = !DIDerivedType(tag: DW_TAG_typedef, name: "uintmax_t", file: !130, line: 32, baseType: !124)
!130 = !DIFile(filename: "/Library/Developer/CommandLineTools/SDKs/MacOSX13.sdk/usr/include/_types/_uintmax_t.h", directory: "")
!131 = !DIImportedEntity(tag: DW_TAG_imported_declaration, scope: !18, entity: !132, file: !134, line: 49)
!132 = !DIDerivedType(tag: DW_TAG_typedef, name: "ptrdiff_t", file: !133, line: 35, baseType: !120)
!133 = !DIFile(filename: "/opt/homebrew/Cellar/llvm@14/14.0.6/lib/clang/14.0.6/include/stddef.h", directory: "")
!134 = !DIFile(filename: "/opt/homebrew/Cellar/llvm@14/14.0.6/bin/../include/c++/v1/cstddef", directory: "")
!135 = !DIImportedEntity(tag: DW_TAG_imported_declaration, scope: !18, entity: !136, file: !134, line: 50)
!136 = !DIDerivedType(tag: DW_TAG_typedef, name: "size_t", file: !137, line: 31, baseType: !138)
!137 = !DIFile(filename: "/Library/Developer/CommandLineTools/SDKs/MacOSX13.sdk/usr/include/sys/_types/_size_t.h", directory: "")
!138 = !DIDerivedType(tag: DW_TAG_typedef, name: "__darwin_size_t", file: !119, line: 70, baseType: !124)
!139 = !DIImportedEntity(tag: DW_TAG_imported_declaration, scope: !18, entity: !140, file: !134, line: 53)
!140 = !DIDerivedType(tag: DW_TAG_typedef, name: "max_align_t", file: !141, line: 16, baseType: !142)
!141 = !DIFile(filename: "/opt/homebrew/Cellar/llvm@14/14.0.6/lib/clang/14.0.6/include/__stddef_max_align_t.h", directory: "")
!142 = !DIBasicType(name: "long double", size: 64, encoding: DW_ATE_float)
!143 = !DIImportedEntity(tag: DW_TAG_imported_declaration, scope: !18, entity: !136, file: !144, line: 99)
!144 = !DIFile(filename: "/opt/homebrew/Cellar/llvm@14/14.0.6/bin/../include/c++/v1/cstdlib", directory: "")
!145 = !DIImportedEntity(tag: DW_TAG_imported_declaration, scope: !18, entity: !146, file: !144, line: 100)
!146 = !DIDerivedType(tag: DW_TAG_typedef, name: "div_t", file: !147, line: 86, baseType: !148)
!147 = !DIFile(filename: "/Library/Developer/CommandLineTools/SDKs/MacOSX13.sdk/usr/include/stdlib.h", directory: "")
!148 = distinct !DICompositeType(tag: DW_TAG_structure_type, file: !147, line: 83, size: 64, flags: DIFlagTypePassByValue, elements: !149, identifier: "_ZTS5div_t")
!149 = !{!150, !151}
!150 = !DIDerivedType(tag: DW_TAG_member, name: "quot", scope: !148, file: !147, line: 84, baseType: !6, size: 32)
!151 = !DIDerivedType(tag: DW_TAG_member, name: "rem", scope: !148, file: !147, line: 85, baseType: !6, size: 32, offset: 32)
!152 = !DIImportedEntity(tag: DW_TAG_imported_declaration, scope: !18, entity: !153, file: !144, line: 101)
!153 = !DIDerivedType(tag: DW_TAG_typedef, name: "ldiv_t", file: !147, line: 91, baseType: !154)
!154 = distinct !DICompositeType(tag: DW_TAG_structure_type, file: !147, line: 88, size: 128, flags: DIFlagTypePassByValue, elements: !155, identifier: "_ZTS6ldiv_t")
!155 = !{!156, !157}
!156 = !DIDerivedType(tag: DW_TAG_member, name: "quot", scope: !154, file: !147, line: 89, baseType: !120, size: 64)
!157 = !DIDerivedType(tag: DW_TAG_member, name: "rem", scope: !154, file: !147, line: 90, baseType: !120, size: 64, offset: 64)
!158 = !DIImportedEntity(tag: DW_TAG_imported_declaration, scope: !18, entity: !159, file: !144, line: 102)
!159 = !DIDerivedType(tag: DW_TAG_typedef, name: "lldiv_t", file: !147, line: 97, baseType: !160)
!160 = distinct !DICompositeType(tag: DW_TAG_structure_type, file: !147, line: 94, size: 128, flags: DIFlagTypePassByValue, elements: !161, identifier: "_ZTS7lldiv_t")
!161 = !{!162, !163}
!162 = !DIDerivedType(tag: DW_TAG_member, name: "quot", scope: !160, file: !147, line: 95, baseType: !66, size: 64)
!163 = !DIDerivedType(tag: DW_TAG_member, name: "rem", scope: !160, file: !147, line: 96, baseType: !66, size: 64, offset: 64)
!164 = !DIImportedEntity(tag: DW_TAG_imported_declaration, scope: !18, entity: !165, file: !144, line: 103)
!165 = !DISubprogram(name: "atof", scope: !147, file: !147, line: 134, type: !166, flags: DIFlagPrototyped, spFlags: DISPFlagOptimized)
!166 = !DISubroutineType(types: !167)
!167 = !{!168, !13}
!168 = !DIBasicType(name: "double", size: 64, encoding: DW_ATE_float)
!169 = !DIImportedEntity(tag: DW_TAG_imported_declaration, scope: !18, entity: !170, file: !144, line: 104)
!170 = !DISubprogram(name: "atoi", scope: !147, file: !147, line: 135, type: !171, flags: DIFlagPrototyped, spFlags: DISPFlagOptimized)
!171 = !DISubroutineType(types: !172)
!172 = !{!6, !13}
!173 = !DIImportedEntity(tag: DW_TAG_imported_declaration, scope: !18, entity: !174, file: !144, line: 105)
!174 = !DISubprogram(name: "atol", scope: !147, file: !147, line: 136, type: !175, flags: DIFlagPrototyped, spFlags: DISPFlagOptimized)
!175 = !DISubroutineType(types: !176)
!176 = !{!120, !13}
!177 = !DIImportedEntity(tag: DW_TAG_imported_declaration, scope: !18, entity: !178, file: !144, line: 106)
!178 = !DISubprogram(name: "atoll", scope: !147, file: !147, line: 139, type: !179, flags: DIFlagPrototyped, spFlags: DISPFlagOptimized)
!179 = !DISubroutineType(types: !180)
!180 = !{!66, !13}
!181 = !DIImportedEntity(tag: DW_TAG_imported_declaration, scope: !18, entity: !182, file: !144, line: 107)
!182 = !DISubprogram(name: "strtod", linkageName: "\01_strtod", scope: !147, file: !147, line: 165, type: !183, flags: DIFlagPrototyped, spFlags: DISPFlagOptimized)
!183 = !DISubroutineType(types: !184)
!184 = !{!168, !13, !185}
!185 = !DIDerivedType(tag: DW_TAG_pointer_type, baseType: !11, size: 64)
!186 = !DIImportedEntity(tag: DW_TAG_imported_declaration, scope: !18, entity: !187, file: !144, line: 108)
!187 = !DISubprogram(name: "strtof", linkageName: "\01_strtof", scope: !147, file: !147, line: 166, type: !188, flags: DIFlagPrototyped, spFlags: DISPFlagOptimized)
!188 = !DISubroutineType(types: !189)
!189 = !{!190, !13, !185}
!190 = !DIBasicType(name: "float", size: 32, encoding: DW_ATE_float)
!191 = !DIImportedEntity(tag: DW_TAG_imported_declaration, scope: !18, entity: !192, file: !144, line: 109)
!192 = !DISubprogram(name: "strtold", scope: !147, file: !147, line: 169, type: !193, flags: DIFlagPrototyped, spFlags: DISPFlagOptimized)
!193 = !DISubroutineType(types: !194)
!194 = !{!142, !13, !185}
!195 = !DIImportedEntity(tag: DW_TAG_imported_declaration, scope: !18, entity: !196, file: !144, line: 110)
!196 = !DISubprogram(name: "strtol", scope: !147, file: !147, line: 167, type: !197, flags: DIFlagPrototyped, spFlags: DISPFlagOptimized)
!197 = !DISubroutineType(types: !198)
!198 = !{!120, !13, !185, !6}
!199 = !DIImportedEntity(tag: DW_TAG_imported_declaration, scope: !18, entity: !200, file: !144, line: 111)
!200 = !DISubprogram(name: "strtoll", scope: !147, file: !147, line: 172, type: !201, flags: DIFlagPrototyped, spFlags: DISPFlagOptimized)
!201 = !DISubroutineType(types: !202)
!202 = !{!66, !13, !185, !6}
!203 = !DIImportedEntity(tag: DW_TAG_imported_declaration, scope: !18, entity: !204, file: !144, line: 112)
!204 = !DISubprogram(name: "strtoul", scope: !147, file: !147, line: 175, type: !205, flags: DIFlagPrototyped, spFlags: DISPFlagOptimized)
!205 = !DISubroutineType(types: !206)
!206 = !{!124, !13, !185, !6}
!207 = !DIImportedEntity(tag: DW_TAG_imported_declaration, scope: !18, entity: !208, file: !144, line: 113)
!208 = !DISubprogram(name: "strtoull", scope: !147, file: !147, line: 178, type: !209, flags: DIFlagPrototyped, spFlags: DISPFlagOptimized)
!209 = !DISubroutineType(types: !210)
!210 = !{!81, !13, !185, !6}
!211 = !DIImportedEntity(tag: DW_TAG_imported_declaration, scope: !18, entity: !212, file: !144, line: 114)
!212 = !DISubprogram(name: "rand", scope: !147, file: !147, line: 162, type: !4, flags: DIFlagPrototyped, spFlags: DISPFlagOptimized)
!213 = !DIImportedEntity(tag: DW_TAG_imported_declaration, scope: !18, entity: !214, file: !144, line: 115)
!214 = !DISubprogram(name: "srand", scope: !147, file: !147, line: 164, type: !215, flags: DIFlagPrototyped, spFlags: DISPFlagOptimized)
!215 = !DISubroutineType(types: !216)
!216 = !{null, !77}
!217 = !DIImportedEntity(tag: DW_TAG_imported_declaration, scope: !18, entity: !218, file: !144, line: 116)
!218 = !DISubprogram(name: "calloc", scope: !219, file: !219, line: 41, type: !220, flags: DIFlagPrototyped, spFlags: DISPFlagOptimized)
!219 = !DIFile(filename: "/Library/Developer/CommandLineTools/SDKs/MacOSX13.sdk/usr/include/malloc/_malloc.h", directory: "")
!220 = !DISubroutineType(types: !221)
!221 = !{!222, !136, !136}
!222 = !DIDerivedType(tag: DW_TAG_pointer_type, baseType: null, size: 64)
!223 = !DIImportedEntity(tag: DW_TAG_imported_declaration, scope: !18, entity: !224, file: !144, line: 117)
!224 = !DISubprogram(name: "free", scope: !219, file: !219, line: 42, type: !225, flags: DIFlagPrototyped, spFlags: DISPFlagOptimized)
!225 = !DISubroutineType(types: !226)
!226 = !{null, !222}
!227 = !DIImportedEntity(tag: DW_TAG_imported_declaration, scope: !18, entity: !228, file: !144, line: 118)
!228 = !DISubprogram(name: "malloc", scope: !219, file: !219, line: 40, type: !229, flags: DIFlagPrototyped, spFlags: DISPFlagOptimized)
!229 = !DISubroutineType(types: !230)
!230 = !{!222, !136}
!231 = !DIImportedEntity(tag: DW_TAG_imported_declaration, scope: !18, entity: !232, file: !144, line: 119)
!232 = !DISubprogram(name: "realloc", scope: !219, file: !219, line: 43, type: !233, flags: DIFlagPrototyped, spFlags: DISPFlagOptimized)
!233 = !DISubroutineType(types: !234)
!234 = !{!222, !222, !136}
!235 = !DIImportedEntity(tag: DW_TAG_imported_declaration, scope: !18, entity: !236, file: !144, line: 120)
!236 = !DISubprogram(name: "abort", scope: !147, file: !147, line: 131, type: !237, flags: DIFlagPrototyped | DIFlagNoReturn, spFlags: DISPFlagOptimized)
!237 = !DISubroutineType(types: !238)
!238 = !{null}
!239 = !DIImportedEntity(tag: DW_TAG_imported_declaration, scope: !18, entity: !240, file: !144, line: 121)
!240 = !DISubprogram(name: "atexit", scope: !147, file: !147, line: 133, type: !241, flags: DIFlagPrototyped, spFlags: DISPFlagOptimized)
!241 = !DISubroutineType(types: !242)
!242 = !{!6, !243}
!243 = !DIDerivedType(tag: DW_TAG_pointer_type, baseType: !237, size: 64)
!244 = !DIImportedEntity(tag: DW_TAG_imported_declaration, scope: !18, entity: !245, file: !144, line: 122)
!245 = !DISubprogram(name: "exit", scope: !147, file: !147, line: 145, type: !246, flags: DIFlagPrototyped | DIFlagNoReturn, spFlags: DISPFlagOptimized)
!246 = !DISubroutineType(types: !247)
!247 = !{null, !6}
!248 = !DIImportedEntity(tag: DW_TAG_imported_declaration, scope: !18, entity: !249, file: !144, line: 123)
!249 = !DISubprogram(name: "_Exit", scope: !147, file: !147, line: 191, type: !246, flags: DIFlagPrototyped | DIFlagNoReturn, spFlags: DISPFlagOptimized)
!250 = !DIImportedEntity(tag: DW_TAG_imported_declaration, scope: !18, entity: !251, file: !144, line: 125)
!251 = !DISubprogram(name: "getenv", scope: !147, file: !147, line: 147, type: !252, flags: DIFlagPrototyped, spFlags: DISPFlagOptimized)
!252 = !DISubroutineType(types: !253)
!253 = !{!11, !13}
!254 = !DIImportedEntity(tag: DW_TAG_imported_declaration, scope: !18, entity: !255, file: !144, line: 126)
!255 = !DISubprogram(name: "system", linkageName: "\01_system", scope: !147, file: !147, line: 184, type: !171, flags: DIFlagPrototyped, spFlags: DISPFlagOptimized)
!256 = !DIImportedEntity(tag: DW_TAG_imported_declaration, scope: !18, entity: !257, file: !144, line: 128)
!257 = !DISubprogram(name: "bsearch", scope: !147, file: !147, line: 141, type: !258, flags: DIFlagPrototyped, spFlags: DISPFlagOptimized)
!258 = !DISubroutineType(types: !259)
!259 = !{!222, !260, !260, !136, !136, !262}
!260 = !DIDerivedType(tag: DW_TAG_pointer_type, baseType: !261, size: 64)
!261 = !DIDerivedType(tag: DW_TAG_const_type, baseType: null)
!262 = !DIDerivedType(tag: DW_TAG_pointer_type, baseType: !263, size: 64)
!263 = !DISubroutineType(types: !264)
!264 = !{!6, !260, !260}
!265 = !DIImportedEntity(tag: DW_TAG_imported_declaration, scope: !18, entity: !266, file: !144, line: 129)
!266 = !DISubprogram(name: "qsort", scope: !147, file: !147, line: 160, type: !267, flags: DIFlagPrototyped, spFlags: DISPFlagOptimized)
!267 = !DISubroutineType(types: !268)
!268 = !{null, !222, !136, !136, !262}
!269 = !DIImportedEntity(tag: DW_TAG_imported_declaration, scope: !18, entity: !270, file: !144, line: 130)
!270 = !DISubprogram(name: "abs", linkageName: "_Z3abse", scope: !271, file: !271, line: 129, type: !272, flags: DIFlagPrototyped, spFlags: DISPFlagOptimized)
!271 = !DIFile(filename: "/opt/homebrew/Cellar/llvm@14/14.0.6/bin/../include/c++/v1/stdlib.h", directory: "")
!272 = !DISubroutineType(types: !273)
!273 = !{!142, !142}
!274 = !DIImportedEntity(tag: DW_TAG_imported_declaration, scope: !18, entity: !275, file: !144, line: 131)
!275 = !DISubprogram(name: "labs", scope: !147, file: !147, line: 148, type: !276, flags: DIFlagPrototyped, spFlags: DISPFlagOptimized)
!276 = !DISubroutineType(types: !277)
!277 = !{!120, !120}
!278 = !DIImportedEntity(tag: DW_TAG_imported_declaration, scope: !18, entity: !279, file: !144, line: 132)
!279 = !DISubprogram(name: "llabs", scope: !147, file: !147, line: 152, type: !280, flags: DIFlagPrototyped, spFlags: DISPFlagOptimized)
!280 = !DISubroutineType(types: !281)
!281 = !{!66, !66}
!282 = !DIImportedEntity(tag: DW_TAG_imported_declaration, scope: !18, entity: !283, file: !144, line: 133)
!283 = !DISubprogram(name: "div", linkageName: "_Z3divxx", scope: !271, file: !271, line: 152, type: !284, flags: DIFlagPrototyped, spFlags: DISPFlagOptimized)
!284 = !DISubroutineType(types: !285)
!285 = !{!159, !66, !66}
!286 = !DIImportedEntity(tag: DW_TAG_imported_declaration, scope: !18, entity: !287, file: !144, line: 134)
!287 = !DISubprogram(name: "ldiv", scope: !147, file: !147, line: 149, type: !288, flags: DIFlagPrototyped, spFlags: DISPFlagOptimized)
!288 = !DISubroutineType(types: !289)
!289 = !{!153, !120, !120}
!290 = !DIImportedEntity(tag: DW_TAG_imported_declaration, scope: !18, entity: !291, file: !144, line: 135)
!291 = !DISubprogram(name: "lldiv", scope: !147, file: !147, line: 153, type: !284, flags: DIFlagPrototyped, spFlags: DISPFlagOptimized)
!292 = !DIImportedEntity(tag: DW_TAG_imported_declaration, scope: !18, entity: !293, file: !144, line: 136)
!293 = !DISubprogram(name: "mblen", scope: !147, file: !147, line: 156, type: !294, flags: DIFlagPrototyped, spFlags: DISPFlagOptimized)
!294 = !DISubroutineType(types: !295)
!295 = !{!6, !13, !136}
!296 = !DIImportedEntity(tag: DW_TAG_imported_declaration, scope: !18, entity: !297, file: !144, line: 137)
!297 = !DISubprogram(name: "mbtowc", scope: !147, file: !147, line: 158, type: !298, flags: DIFlagPrototyped, spFlags: DISPFlagOptimized)
!298 = !DISubroutineType(types: !299)
!299 = !{!6, !300, !13, !136}
!300 = !DIDerivedType(tag: DW_TAG_pointer_type, baseType: !301, size: 64)
!301 = !DIBasicType(name: "wchar_t", size: 32, encoding: DW_ATE_signed)
!302 = !DIImportedEntity(tag: DW_TAG_imported_declaration, scope: !18, entity: !303, file: !144, line: 138)
!303 = !DISubprogram(name: "wctomb", scope: !147, file: !147, line: 188, type: !304, flags: DIFlagPrototyped, spFlags: DISPFlagOptimized)
!304 = !DISubroutineType(types: !305)
!305 = !{!6, !11, !301}
!306 = !DIImportedEntity(tag: DW_TAG_imported_declaration, scope: !18, entity: !307, file: !144, line: 139)
!307 = !DISubprogram(name: "mbstowcs", scope: !147, file: !147, line: 157, type: !308, flags: DIFlagPrototyped, spFlags: DISPFlagOptimized)
!308 = !DISubroutineType(types: !309)
!309 = !{!136, !300, !13, !136}
!310 = !DIImportedEntity(tag: DW_TAG_imported_declaration, scope: !18, entity: !311, file: !144, line: 140)
!311 = !DISubprogram(name: "wcstombs", scope: !147, file: !147, line: 187, type: !312, flags: DIFlagPrototyped, spFlags: DISPFlagOptimized)
!312 = !DISubroutineType(types: !313)
!313 = !{!136, !11, !314, !136}
!314 = !DIDerivedType(tag: DW_TAG_pointer_type, baseType: !315, size: 64)
!315 = !DIDerivedType(tag: DW_TAG_const_type, baseType: !301)
!316 = !DIImportedEntity(tag: DW_TAG_imported_declaration, scope: !7, entity: !317, file: !320, line: 51)
!317 = !DIDerivedType(tag: DW_TAG_typedef, name: "nullptr_t", scope: !19, file: !318, line: 56, baseType: !319)
!318 = !DIFile(filename: "/opt/homebrew/Cellar/llvm@14/14.0.6/bin/../include/c++/v1/__nullptr", directory: "")
!319 = !DIBasicType(tag: DW_TAG_unspecified_type, name: "decltype(nullptr)")
!320 = !DIFile(filename: "/opt/homebrew/Cellar/llvm@14/14.0.6/bin/../include/c++/v1/stddef.h", directory: "")
!321 = !DIImportedEntity(tag: DW_TAG_imported_declaration, scope: !18, entity: !322, file: !333, line: 40)
!322 = !DIDerivedType(tag: DW_TAG_typedef, name: "mbstate_t", file: !323, line: 32, baseType: !324)
!323 = !DIFile(filename: "/Library/Developer/CommandLineTools/SDKs/MacOSX13.sdk/usr/include/sys/_types/_mbstate_t.h", directory: "")
!324 = !DIDerivedType(tag: DW_TAG_typedef, name: "__darwin_mbstate_t", file: !119, line: 59, baseType: !325)
!325 = !DIDerivedType(tag: DW_TAG_typedef, name: "__mbstate_t", file: !119, line: 57, baseType: !326)
!326 = distinct !DICompositeType(tag: DW_TAG_union_type, file: !119, line: 54, size: 1024, flags: DIFlagTypePassByValue, elements: !327, identifier: "_ZTS11__mbstate_t")
!327 = !{!328, !332}
!328 = !DIDerivedType(tag: DW_TAG_member, name: "__mbstate8", scope: !326, file: !119, line: 55, baseType: !329, size: 1024)
!329 = !DICompositeType(tag: DW_TAG_array_type, baseType: !12, size: 1024, elements: !330)
!330 = !{!331}
!331 = !DISubrange(count: 128)
!332 = !DIDerivedType(tag: DW_TAG_member, name: "_mbstateL", scope: !326, file: !119, line: 56, baseType: !66, size: 64)
!333 = !DIFile(filename: "/opt/homebrew/Cellar/llvm@14/14.0.6/bin/../include/c++/v1/__mbstate_t.h", directory: "")
!334 = !DIImportedEntity(tag: DW_TAG_imported_declaration, scope: !18, entity: !335, file: !340, line: 324)
!335 = !DISubprogram(name: "isinf", linkageName: "_Z5isinfe", scope: !336, file: !336, line: 514, type: !337, flags: DIFlagPrototyped, spFlags: DISPFlagOptimized)
!336 = !DIFile(filename: "/opt/homebrew/Cellar/llvm@14/14.0.6/bin/../include/c++/v1/math.h", directory: "")
!337 = !DISubroutineType(types: !338)
!338 = !{!339, !142}
!339 = !DIBasicType(name: "bool", size: 8, encoding: DW_ATE_boolean)
!340 = !DIFile(filename: "/opt/homebrew/Cellar/llvm@14/14.0.6/bin/../include/c++/v1/cmath", directory: "")
!341 = !DIImportedEntity(tag: DW_TAG_imported_declaration, scope: !18, entity: !342, file: !340, line: 325)
!342 = !DISubprogram(name: "isnan", linkageName: "_Z5isnane", scope: !336, file: !336, line: 562, type: !337, flags: DIFlagPrototyped, spFlags: DISPFlagOptimized)
!343 = !DIImportedEntity(tag: DW_TAG_imported_declaration, scope: !18, entity: !344, file: !340, line: 335)
!344 = !DIDerivedType(tag: DW_TAG_typedef, name: "float_t", file: !345, line: 44, baseType: !190)
!345 = !DIFile(filename: "/Library/Developer/CommandLineTools/SDKs/MacOSX13.sdk/usr/include/math.h", directory: "")
!346 = !DIImportedEntity(tag: DW_TAG_imported_declaration, scope: !18, entity: !347, file: !340, line: 336)
!347 = !DIDerivedType(tag: DW_TAG_typedef, name: "double_t", file: !345, line: 45, baseType: !168)
!348 = !DIImportedEntity(tag: DW_TAG_imported_declaration, scope: !18, entity: !270, file: !340, line: 338)
!349 = !DIImportedEntity(tag: DW_TAG_imported_declaration, scope: !18, entity: !350, file: !340, line: 341)
!350 = !DISubprogram(name: "acosf", scope: !345, file: !345, line: 308, type: !351, flags: DIFlagPrototyped, spFlags: DISPFlagOptimized)
!351 = !DISubroutineType(types: !352)
!352 = !{!190, !190}
!353 = !DIImportedEntity(tag: DW_TAG_imported_declaration, scope: !18, entity: !354, file: !340, line: 343)
!354 = !DISubprogram(name: "asinf", scope: !345, file: !345, line: 312, type: !351, flags: DIFlagPrototyped, spFlags: DISPFlagOptimized)
!355 = !DIImportedEntity(tag: DW_TAG_imported_declaration, scope: !18, entity: !356, file: !340, line: 345)
!356 = !DISubprogram(name: "atanf", scope: !345, file: !345, line: 316, type: !351, flags: DIFlagPrototyped, spFlags: DISPFlagOptimized)
!357 = !DIImportedEntity(tag: DW_TAG_imported_declaration, scope: !18, entity: !358, file: !340, line: 347)
!358 = !DISubprogram(name: "atan2f", scope: !345, file: !345, line: 320, type: !359, flags: DIFlagPrototyped, spFlags: DISPFlagOptimized)
!359 = !DISubroutineType(types: !360)
!360 = !{!190, !190, !190}
!361 = !DIImportedEntity(tag: DW_TAG_imported_declaration, scope: !18, entity: !362, file: !340, line: 349)
!362 = !DISubprogram(name: "ceilf", scope: !345, file: !345, line: 455, type: !351, flags: DIFlagPrototyped, spFlags: DISPFlagOptimized)
!363 = !DIImportedEntity(tag: DW_TAG_imported_declaration, scope: !18, entity: !364, file: !340, line: 351)
!364 = !DISubprogram(name: "cosf", scope: !345, file: !345, line: 324, type: !351, flags: DIFlagPrototyped, spFlags: DISPFlagOptimized)
!365 = !DIImportedEntity(tag: DW_TAG_imported_declaration, scope: !18, entity: !366, file: !340, line: 353)
!366 = !DISubprogram(name: "coshf", scope: !345, file: !345, line: 348, type: !351, flags: DIFlagPrototyped, spFlags: DISPFlagOptimized)
!367 = !DIImportedEntity(tag: DW_TAG_imported_declaration, scope: !18, entity: !368, file: !340, line: 356)
!368 = !DISubprogram(name: "expf", scope: !345, file: !345, line: 360, type: !351, flags: DIFlagPrototyped, spFlags: DISPFlagOptimized)
!369 = !DIImportedEntity(tag: DW_TAG_imported_declaration, scope: !18, entity: !370, file: !340, line: 359)
!370 = !DISubprogram(name: "fabsf", scope: !345, file: !345, line: 416, type: !351, flags: DIFlagPrototyped, spFlags: DISPFlagOptimized)
!371 = !DIImportedEntity(tag: DW_TAG_imported_declaration, scope: !18, entity: !372, file: !340, line: 361)
!372 = !DISubprogram(name: "floorf", scope: !345, file: !345, line: 459, type: !351, flags: DIFlagPrototyped, spFlags: DISPFlagOptimized)
!373 = !DIImportedEntity(tag: DW_TAG_imported_declaration, scope: !18, entity: !374, file: !340, line: 364)
!374 = !DISubprogram(name: "fmodf", scope: !345, file: !345, line: 499, type: !359, flags: DIFlagPrototyped, spFlags: DISPFlagOptimized)
!375 = !DIImportedEntity(tag: DW_TAG_imported_declaration, scope: !18, entity: !376, file: !340, line: 367)
!376 = !DISubprogram(name: "frexpf", scope: !345, file: !345, line: 400, type: !377, flags: DIFlagPrototyped, spFlags: DISPFlagOptimized)
!377 = !DISubroutineType(types: !378)
!378 = !{!190, !190, !379}
!379 = !DIDerivedType(tag: DW_TAG_pointer_type, baseType: !6, size: 64)
!380 = !DIImportedEntity(tag: DW_TAG_imported_declaration, scope: !18, entity: !381, file: !340, line: 369)
!381 = !DISubprogram(name: "ldexpf", scope: !345, file: !345, line: 396, type: !382, flags: DIFlagPrototyped, spFlags: DISPFlagOptimized)
!382 = !DISubroutineType(types: !383)
!383 = !{!190, !190, !6}
!384 = !DIImportedEntity(tag: DW_TAG_imported_declaration, scope: !18, entity: !385, file: !340, line: 372)
!385 = !DISubprogram(name: "logf", scope: !345, file: !345, line: 372, type: !351, flags: DIFlagPrototyped, spFlags: DISPFlagOptimized)
!386 = !DIImportedEntity(tag: DW_TAG_imported_declaration, scope: !18, entity: !387, file: !340, line: 375)
!387 = !DISubprogram(name: "log10f", scope: !345, file: !345, line: 376, type: !351, flags: DIFlagPrototyped, spFlags: DISPFlagOptimized)
!388 = !DIImportedEntity(tag: DW_TAG_imported_declaration, scope: !18, entity: !389, file: !340, line: 376)
!389 = !DISubprogram(name: "modf", linkageName: "_Z4modfePe", scope: !336, file: !336, line: 995, type: !390, flags: DIFlagPrototyped, spFlags: DISPFlagOptimized)
!390 = !DISubroutineType(types: !391)
!391 = !{!142, !142, !392}
!392 = !DIDerivedType(tag: DW_TAG_pointer_type, baseType: !142, size: 64)
!393 = !DIImportedEntity(tag: DW_TAG_imported_declaration, scope: !18, entity: !394, file: !340, line: 377)
!394 = !DISubprogram(name: "modff", scope: !345, file: !345, line: 392, type: !395, flags: DIFlagPrototyped, spFlags: DISPFlagOptimized)
!395 = !DISubroutineType(types: !396)
!396 = !{!190, !190, !397}
!397 = !DIDerivedType(tag: DW_TAG_pointer_type, baseType: !190, size: 64)
!398 = !DIImportedEntity(tag: DW_TAG_imported_declaration, scope: !18, entity: !399, file: !340, line: 380)
!399 = !DISubprogram(name: "powf", scope: !345, file: !345, line: 428, type: !359, flags: DIFlagPrototyped, spFlags: DISPFlagOptimized)
!400 = !DIImportedEntity(tag: DW_TAG_imported_declaration, scope: !18, entity: !401, file: !340, line: 383)
!401 = !DISubprogram(name: "sinf", scope: !345, file: !345, line: 328, type: !351, flags: DIFlagPrototyped, spFlags: DISPFlagOptimized)
!402 = !DIImportedEntity(tag: DW_TAG_imported_declaration, scope: !18, entity: !403, file: !340, line: 385)
!403 = !DISubprogram(name: "sinhf", scope: !345, file: !345, line: 352, type: !351, flags: DIFlagPrototyped, spFlags: DISPFlagOptimized)
!404 = !DIImportedEntity(tag: DW_TAG_imported_declaration, scope: !18, entity: !405, file: !340, line: 388)
!405 = !DISubprogram(name: "sqrtf", scope: !345, file: !345, line: 432, type: !351, flags: DIFlagPrototyped, spFlags: DISPFlagOptimized)
!406 = !DIImportedEntity(tag: DW_TAG_imported_declaration, scope: !18, entity: !407, file: !340, line: 390)
!407 = !DISubprogram(name: "tanf", scope: !345, file: !345, line: 332, type: !351, flags: DIFlagPrototyped, spFlags: DISPFlagOptimized)
!408 = !DIImportedEntity(tag: DW_TAG_imported_declaration, scope: !18, entity: !409, file: !340, line: 393)
!409 = !DISubprogram(name: "tanhf", scope: !345, file: !345, line: 356, type: !351, flags: DIFlagPrototyped, spFlags: DISPFlagOptimized)
!410 = !DIImportedEntity(tag: DW_TAG_imported_declaration, scope: !18, entity: !411, file: !340, line: 396)
!411 = !DISubprogram(name: "acoshf", scope: !345, file: !345, line: 336, type: !351, flags: DIFlagPrototyped, spFlags: DISPFlagOptimized)
!412 = !DIImportedEntity(tag: DW_TAG_imported_declaration, scope: !18, entity: !413, file: !340, line: 398)
!413 = !DISubprogram(name: "asinhf", scope: !345, file: !345, line: 340, type: !351, flags: DIFlagPrototyped, spFlags: DISPFlagOptimized)
!414 = !DIImportedEntity(tag: DW_TAG_imported_declaration, scope: !18, entity: !415, file: !340, line: 400)
!415 = !DISubprogram(name: "atanhf", scope: !345, file: !345, line: 344, type: !351, flags: DIFlagPrototyped, spFlags: DISPFlagOptimized)
!416 = !DIImportedEntity(tag: DW_TAG_imported_declaration, scope: !18, entity: !417, file: !340, line: 402)
!417 = !DISubprogram(name: "cbrtf", scope: !345, file: !345, line: 420, type: !351, flags: DIFlagPrototyped, spFlags: DISPFlagOptimized)
!418 = !DIImportedEntity(tag: DW_TAG_imported_declaration, scope: !18, entity: !419, file: !340, line: 405)
!419 = !DISubprogram(name: "copysignf", scope: !345, file: !345, line: 511, type: !359, flags: DIFlagPrototyped, spFlags: DISPFlagOptimized)
!420 = !DIImportedEntity(tag: DW_TAG_imported_declaration, scope: !18, entity: !421, file: !340, line: 408)
!421 = !DISubprogram(name: "erff", scope: !345, file: !345, line: 436, type: !351, flags: DIFlagPrototyped, spFlags: DISPFlagOptimized)
!422 = !DIImportedEntity(tag: DW_TAG_imported_declaration, scope: !18, entity: !423, file: !340, line: 410)
!423 = !DISubprogram(name: "erfcf", scope: !345, file: !345, line: 440, type: !351, flags: DIFlagPrototyped, spFlags: DISPFlagOptimized)
!424 = !DIImportedEntity(tag: DW_TAG_imported_declaration, scope: !18, entity: !425, file: !340, line: 412)
!425 = !DISubprogram(name: "exp2f", scope: !345, file: !345, line: 364, type: !351, flags: DIFlagPrototyped, spFlags: DISPFlagOptimized)
!426 = !DIImportedEntity(tag: DW_TAG_imported_declaration, scope: !18, entity: !427, file: !340, line: 414)
!427 = !DISubprogram(name: "expm1f", scope: !345, file: !345, line: 368, type: !351, flags: DIFlagPrototyped, spFlags: DISPFlagOptimized)
!428 = !DIImportedEntity(tag: DW_TAG_imported_declaration, scope: !18, entity: !429, file: !340, line: 416)
!429 = !DISubprogram(name: "fdimf", scope: !345, file: !345, line: 527, type: !359, flags: DIFlagPrototyped, spFlags: DISPFlagOptimized)
!430 = !DIImportedEntity(tag: DW_TAG_imported_declaration, scope: !18, entity: !431, file: !340, line: 417)
!431 = !DISubprogram(name: "fmaf", scope: !345, file: !345, line: 539, type: !432, flags: DIFlagPrototyped, spFlags: DISPFlagOptimized)
!432 = !DISubroutineType(types: !433)
!433 = !{!190, !190, !190, !190}
!434 = !DIImportedEntity(tag: DW_TAG_imported_declaration, scope: !18, entity: !435, file: !340, line: 420)
!435 = !DISubprogram(name: "fmaxf", scope: !345, file: !345, line: 531, type: !359, flags: DIFlagPrototyped, spFlags: DISPFlagOptimized)
!436 = !DIImportedEntity(tag: DW_TAG_imported_declaration, scope: !18, entity: !437, file: !340, line: 422)
!437 = !DISubprogram(name: "fminf", scope: !345, file: !345, line: 535, type: !359, flags: DIFlagPrototyped, spFlags: DISPFlagOptimized)
!438 = !DIImportedEntity(tag: DW_TAG_imported_declaration, scope: !18, entity: !439, file: !340, line: 424)
!439 = !DISubprogram(name: "hypotf", scope: !345, file: !345, line: 424, type: !359, flags: DIFlagPrototyped, spFlags: DISPFlagOptimized)
!440 = !DIImportedEntity(tag: DW_TAG_imported_declaration, scope: !18, entity: !441, file: !340, line: 426)
!441 = !DISubprogram(name: "ilogbf", scope: !345, file: !345, line: 404, type: !442, flags: DIFlagPrototyped, spFlags: DISPFlagOptimized)
!442 = !DISubroutineType(types: !443)
!443 = !{!6, !190}
!444 = !DIImportedEntity(tag: DW_TAG_imported_declaration, scope: !18, entity: !445, file: !340, line: 428)
!445 = !DISubprogram(name: "lgammaf", scope: !345, file: !345, line: 447, type: !351, flags: DIFlagPrototyped, spFlags: DISPFlagOptimized)
!446 = !DIImportedEntity(tag: DW_TAG_imported_declaration, scope: !18, entity: !447, file: !340, line: 430)
!447 = !DISubprogram(name: "llrintf", scope: !345, file: !345, line: 486, type: !448, flags: DIFlagPrototyped, spFlags: DISPFlagOptimized)
!448 = !DISubroutineType(types: !449)
!449 = !{!66, !190}
!450 = !DIImportedEntity(tag: DW_TAG_imported_declaration, scope: !18, entity: !451, file: !340, line: 432)
!451 = !DISubprogram(name: "llroundf", scope: !345, file: !345, line: 490, type: !448, flags: DIFlagPrototyped, spFlags: DISPFlagOptimized)
!452 = !DIImportedEntity(tag: DW_TAG_imported_declaration, scope: !18, entity: !453, file: !340, line: 434)
!453 = !DISubprogram(name: "log1pf", scope: !345, file: !345, line: 384, type: !351, flags: DIFlagPrototyped, spFlags: DISPFlagOptimized)
!454 = !DIImportedEntity(tag: DW_TAG_imported_declaration, scope: !18, entity: !455, file: !340, line: 436)
!455 = !DISubprogram(name: "log2f", scope: !345, file: !345, line: 380, type: !351, flags: DIFlagPrototyped, spFlags: DISPFlagOptimized)
!456 = !DIImportedEntity(tag: DW_TAG_imported_declaration, scope: !18, entity: !457, file: !340, line: 438)
!457 = !DISubprogram(name: "logbf", scope: !345, file: !345, line: 388, type: !351, flags: DIFlagPrototyped, spFlags: DISPFlagOptimized)
!458 = !DIImportedEntity(tag: DW_TAG_imported_declaration, scope: !18, entity: !459, file: !340, line: 440)
!459 = !DISubprogram(name: "lrintf", scope: !345, file: !345, line: 471, type: !460, flags: DIFlagPrototyped, spFlags: DISPFlagOptimized)
!460 = !DISubroutineType(types: !461)
!461 = !{!120, !190}
!462 = !DIImportedEntity(tag: DW_TAG_imported_declaration, scope: !18, entity: !463, file: !340, line: 442)
!463 = !DISubprogram(name: "lroundf", scope: !345, file: !345, line: 479, type: !460, flags: DIFlagPrototyped, spFlags: DISPFlagOptimized)
!464 = !DIImportedEntity(tag: DW_TAG_imported_declaration, scope: !18, entity: !465, file: !340, line: 444)
!465 = !DISubprogram(name: "nan", scope: !345, file: !345, line: 516, type: !166, flags: DIFlagPrototyped, spFlags: DISPFlagOptimized)
!466 = !DIImportedEntity(tag: DW_TAG_imported_declaration, scope: !18, entity: !467, file: !340, line: 445)
!467 = !DISubprogram(name: "nanf", scope: !345, file: !345, line: 515, type: !468, flags: DIFlagPrototyped, spFlags: DISPFlagOptimized)
!468 = !DISubroutineType(types: !469)
!469 = !{!190, !13}
!470 = !DIImportedEntity(tag: DW_TAG_imported_declaration, scope: !18, entity: !471, file: !340, line: 448)
!471 = !DISubprogram(name: "nearbyintf", scope: !345, file: !345, line: 463, type: !351, flags: DIFlagPrototyped, spFlags: DISPFlagOptimized)
!472 = !DIImportedEntity(tag: DW_TAG_imported_declaration, scope: !18, entity: !473, file: !340, line: 450)
!473 = !DISubprogram(name: "nextafterf", scope: !345, file: !345, line: 519, type: !359, flags: DIFlagPrototyped, spFlags: DISPFlagOptimized)
!474 = !DIImportedEntity(tag: DW_TAG_imported_declaration, scope: !18, entity: !475, file: !340, line: 452)
!475 = !DISubprogram(name: "nexttowardf", scope: !345, file: !345, line: 524, type: !476, flags: DIFlagPrototyped, spFlags: DISPFlagOptimized)
!476 = !DISubroutineType(types: !477)
!477 = !{!190, !190, !142}
!478 = !DIImportedEntity(tag: DW_TAG_imported_declaration, scope: !18, entity: !479, file: !340, line: 454)
!479 = !DISubprogram(name: "remainderf", scope: !345, file: !345, line: 503, type: !359, flags: DIFlagPrototyped, spFlags: DISPFlagOptimized)
!480 = !DIImportedEntity(tag: DW_TAG_imported_declaration, scope: !18, entity: !481, file: !340, line: 456)
!481 = !DISubprogram(name: "remquof", scope: !345, file: !345, line: 507, type: !482, flags: DIFlagPrototyped, spFlags: DISPFlagOptimized)
!482 = !DISubroutineType(types: !483)
!483 = !{!190, !190, !190, !379}
!484 = !DIImportedEntity(tag: DW_TAG_imported_declaration, scope: !18, entity: !485, file: !340, line: 458)
!485 = !DISubprogram(name: "rintf", scope: !345, file: !345, line: 467, type: !351, flags: DIFlagPrototyped, spFlags: DISPFlagOptimized)
!486 = !DIImportedEntity(tag: DW_TAG_imported_declaration, scope: !18, entity: !487, file: !340, line: 460)
!487 = !DISubprogram(name: "roundf", scope: !345, file: !345, line: 475, type: !351, flags: DIFlagPrototyped, spFlags: DISPFlagOptimized)
!488 = !DIImportedEntity(tag: DW_TAG_imported_declaration, scope: !18, entity: !489, file: !340, line: 462)
!489 = !DISubprogram(name: "scalblnf", scope: !345, file: !345, line: 412, type: !490, flags: DIFlagPrototyped, spFlags: DISPFlagOptimized)
!490 = !DISubroutineType(types: !491)
!491 = !{!190, !190, !120}
!492 = !DIImportedEntity(tag: DW_TAG_imported_declaration, scope: !18, entity: !493, file: !340, line: 464)
!493 = !DISubprogram(name: "scalbnf", scope: !345, file: !345, line: 408, type: !382, flags: DIFlagPrototyped, spFlags: DISPFlagOptimized)
!494 = !DIImportedEntity(tag: DW_TAG_imported_declaration, scope: !18, entity: !495, file: !340, line: 466)
!495 = !DISubprogram(name: "tgammaf", scope: !345, file: !345, line: 451, type: !351, flags: DIFlagPrototyped, spFlags: DISPFlagOptimized)
!496 = !DIImportedEntity(tag: DW_TAG_imported_declaration, scope: !18, entity: !497, file: !340, line: 468)
!497 = !DISubprogram(name: "truncf", scope: !345, file: !345, line: 495, type: !351, flags: DIFlagPrototyped, spFlags: DISPFlagOptimized)
!498 = !DIImportedEntity(tag: DW_TAG_imported_declaration, scope: !18, entity: !499, file: !340, line: 470)
!499 = !DISubprogram(name: "acosl", scope: !345, file: !345, line: 310, type: !272, flags: DIFlagPrototyped, spFlags: DISPFlagOptimized)
!500 = !DIImportedEntity(tag: DW_TAG_imported_declaration, scope: !18, entity: !501, file: !340, line: 471)
!501 = !DISubprogram(name: "asinl", scope: !345, file: !345, line: 314, type: !272, flags: DIFlagPrototyped, spFlags: DISPFlagOptimized)
!502 = !DIImportedEntity(tag: DW_TAG_imported_declaration, scope: !18, entity: !503, file: !340, line: 472)
!503 = !DISubprogram(name: "atanl", scope: !345, file: !345, line: 318, type: !272, flags: DIFlagPrototyped, spFlags: DISPFlagOptimized)
!504 = !DIImportedEntity(tag: DW_TAG_imported_declaration, scope: !18, entity: !505, file: !340, line: 473)
!505 = !DISubprogram(name: "atan2l", scope: !345, file: !345, line: 322, type: !506, flags: DIFlagPrototyped, spFlags: DISPFlagOptimized)
!506 = !DISubroutineType(types: !507)
!507 = !{!142, !142, !142}
!508 = !DIImportedEntity(tag: DW_TAG_imported_declaration, scope: !18, entity: !509, file: !340, line: 474)
!509 = !DISubprogram(name: "ceill", scope: !345, file: !345, line: 457, type: !272, flags: DIFlagPrototyped, spFlags: DISPFlagOptimized)
!510 = !DIImportedEntity(tag: DW_TAG_imported_declaration, scope: !18, entity: !511, file: !340, line: 475)
!511 = !DISubprogram(name: "cosl", scope: !345, file: !345, line: 326, type: !272, flags: DIFlagPrototyped, spFlags: DISPFlagOptimized)
!512 = !DIImportedEntity(tag: DW_TAG_imported_declaration, scope: !18, entity: !513, file: !340, line: 476)
!513 = !DISubprogram(name: "coshl", scope: !345, file: !345, line: 350, type: !272, flags: DIFlagPrototyped, spFlags: DISPFlagOptimized)
!514 = !DIImportedEntity(tag: DW_TAG_imported_declaration, scope: !18, entity: !515, file: !340, line: 477)
!515 = !DISubprogram(name: "expl", scope: !345, file: !345, line: 362, type: !272, flags: DIFlagPrototyped, spFlags: DISPFlagOptimized)
!516 = !DIImportedEntity(tag: DW_TAG_imported_declaration, scope: !18, entity: !517, file: !340, line: 478)
!517 = !DISubprogram(name: "fabsl", scope: !345, file: !345, line: 418, type: !272, flags: DIFlagPrototyped, spFlags: DISPFlagOptimized)
!518 = !DIImportedEntity(tag: DW_TAG_imported_declaration, scope: !18, entity: !519, file: !340, line: 479)
!519 = !DISubprogram(name: "floorl", scope: !345, file: !345, line: 461, type: !272, flags: DIFlagPrototyped, spFlags: DISPFlagOptimized)
!520 = !DIImportedEntity(tag: DW_TAG_imported_declaration, scope: !18, entity: !521, file: !340, line: 480)
!521 = !DISubprogram(name: "fmodl", scope: !345, file: !345, line: 501, type: !506, flags: DIFlagPrototyped, spFlags: DISPFlagOptimized)
!522 = !DIImportedEntity(tag: DW_TAG_imported_declaration, scope: !18, entity: !523, file: !340, line: 481)
!523 = !DISubprogram(name: "frexpl", scope: !345, file: !345, line: 402, type: !524, flags: DIFlagPrototyped, spFlags: DISPFlagOptimized)
!524 = !DISubroutineType(types: !525)
!525 = !{!142, !142, !379}
!526 = !DIImportedEntity(tag: DW_TAG_imported_declaration, scope: !18, entity: !527, file: !340, line: 482)
!527 = !DISubprogram(name: "ldexpl", scope: !345, file: !345, line: 398, type: !528, flags: DIFlagPrototyped, spFlags: DISPFlagOptimized)
!528 = !DISubroutineType(types: !529)
!529 = !{!142, !142, !6}
!530 = !DIImportedEntity(tag: DW_TAG_imported_declaration, scope: !18, entity: !531, file: !340, line: 483)
!531 = !DISubprogram(name: "logl", scope: !345, file: !345, line: 374, type: !272, flags: DIFlagPrototyped, spFlags: DISPFlagOptimized)
!532 = !DIImportedEntity(tag: DW_TAG_imported_declaration, scope: !18, entity: !533, file: !340, line: 484)
!533 = !DISubprogram(name: "log10l", scope: !345, file: !345, line: 378, type: !272, flags: DIFlagPrototyped, spFlags: DISPFlagOptimized)
!534 = !DIImportedEntity(tag: DW_TAG_imported_declaration, scope: !18, entity: !535, file: !340, line: 485)
!535 = !DISubprogram(name: "modfl", scope: !345, file: !345, line: 394, type: !390, flags: DIFlagPrototyped, spFlags: DISPFlagOptimized)
!536 = !DIImportedEntity(tag: DW_TAG_imported_declaration, scope: !18, entity: !537, file: !340, line: 486)
!537 = !DISubprogram(name: "powl", scope: !345, file: !345, line: 430, type: !506, flags: DIFlagPrototyped, spFlags: DISPFlagOptimized)
!538 = !DIImportedEntity(tag: DW_TAG_imported_declaration, scope: !18, entity: !539, file: !340, line: 487)
!539 = !DISubprogram(name: "sinl", scope: !345, file: !345, line: 330, type: !272, flags: DIFlagPrototyped, spFlags: DISPFlagOptimized)
!540 = !DIImportedEntity(tag: DW_TAG_imported_declaration, scope: !18, entity: !541, file: !340, line: 488)
!541 = !DISubprogram(name: "sinhl", scope: !345, file: !345, line: 354, type: !272, flags: DIFlagPrototyped, spFlags: DISPFlagOptimized)
!542 = !DIImportedEntity(tag: DW_TAG_imported_declaration, scope: !18, entity: !543, file: !340, line: 489)
!543 = !DISubprogram(name: "sqrtl", scope: !345, file: !345, line: 434, type: !272, flags: DIFlagPrototyped, spFlags: DISPFlagOptimized)
!544 = !DIImportedEntity(tag: DW_TAG_imported_declaration, scope: !18, entity: !545, file: !340, line: 490)
!545 = !DISubprogram(name: "tanl", scope: !345, file: !345, line: 334, type: !272, flags: DIFlagPrototyped, spFlags: DISPFlagOptimized)
!546 = !DIImportedEntity(tag: DW_TAG_imported_declaration, scope: !18, entity: !547, file: !340, line: 492)
!547 = !DISubprogram(name: "tanhl", scope: !345, file: !345, line: 358, type: !272, flags: DIFlagPrototyped, spFlags: DISPFlagOptimized)
!548 = !DIImportedEntity(tag: DW_TAG_imported_declaration, scope: !18, entity: !549, file: !340, line: 493)
!549 = !DISubprogram(name: "acoshl", scope: !345, file: !345, line: 338, type: !272, flags: DIFlagPrototyped, spFlags: DISPFlagOptimized)
!550 = !DIImportedEntity(tag: DW_TAG_imported_declaration, scope: !18, entity: !551, file: !340, line: 494)
!551 = !DISubprogram(name: "asinhl", scope: !345, file: !345, line: 342, type: !272, flags: DIFlagPrototyped, spFlags: DISPFlagOptimized)
!552 = !DIImportedEntity(tag: DW_TAG_imported_declaration, scope: !18, entity: !553, file: !340, line: 495)
!553 = !DISubprogram(name: "atanhl", scope: !345, file: !345, line: 346, type: !272, flags: DIFlagPrototyped, spFlags: DISPFlagOptimized)
!554 = !DIImportedEntity(tag: DW_TAG_imported_declaration, scope: !18, entity: !555, file: !340, line: 496)
!555 = !DISubprogram(name: "cbrtl", scope: !345, file: !345, line: 422, type: !272, flags: DIFlagPrototyped, spFlags: DISPFlagOptimized)
!556 = !DIImportedEntity(tag: DW_TAG_imported_declaration, scope: !18, entity: !557, file: !340, line: 498)
!557 = !DISubprogram(name: "copysignl", scope: !345, file: !345, line: 513, type: !506, flags: DIFlagPrototyped, spFlags: DISPFlagOptimized)
!558 = !DIImportedEntity(tag: DW_TAG_imported_declaration, scope: !18, entity: !559, file: !340, line: 500)
!559 = !DISubprogram(name: "erfl", scope: !345, file: !345, line: 438, type: !272, flags: DIFlagPrototyped, spFlags: DISPFlagOptimized)
!560 = !DIImportedEntity(tag: DW_TAG_imported_declaration, scope: !18, entity: !561, file: !340, line: 501)
!561 = !DISubprogram(name: "erfcl", scope: !345, file: !345, line: 442, type: !272, flags: DIFlagPrototyped, spFlags: DISPFlagOptimized)
!562 = !DIImportedEntity(tag: DW_TAG_imported_declaration, scope: !18, entity: !563, file: !340, line: 502)
!563 = !DISubprogram(name: "exp2l", scope: !345, file: !345, line: 366, type: !272, flags: DIFlagPrototyped, spFlags: DISPFlagOptimized)
!564 = !DIImportedEntity(tag: DW_TAG_imported_declaration, scope: !18, entity: !565, file: !340, line: 503)
!565 = !DISubprogram(name: "expm1l", scope: !345, file: !345, line: 370, type: !272, flags: DIFlagPrototyped, spFlags: DISPFlagOptimized)
!566 = !DIImportedEntity(tag: DW_TAG_imported_declaration, scope: !18, entity: !567, file: !340, line: 504)
!567 = !DISubprogram(name: "fdiml", scope: !345, file: !345, line: 529, type: !506, flags: DIFlagPrototyped, spFlags: DISPFlagOptimized)
!568 = !DIImportedEntity(tag: DW_TAG_imported_declaration, scope: !18, entity: !569, file: !340, line: 505)
!569 = !DISubprogram(name: "fmal", scope: !345, file: !345, line: 541, type: !570, flags: DIFlagPrototyped, spFlags: DISPFlagOptimized)
!570 = !DISubroutineType(types: !571)
!571 = !{!142, !142, !142, !142}
!572 = !DIImportedEntity(tag: DW_TAG_imported_declaration, scope: !18, entity: !573, file: !340, line: 506)
!573 = !DISubprogram(name: "fmaxl", scope: !345, file: !345, line: 533, type: !506, flags: DIFlagPrototyped, spFlags: DISPFlagOptimized)
!574 = !DIImportedEntity(tag: DW_TAG_imported_declaration, scope: !18, entity: !575, file: !340, line: 507)
!575 = !DISubprogram(name: "fminl", scope: !345, file: !345, line: 537, type: !506, flags: DIFlagPrototyped, spFlags: DISPFlagOptimized)
!576 = !DIImportedEntity(tag: DW_TAG_imported_declaration, scope: !18, entity: !577, file: !340, line: 508)
!577 = !DISubprogram(name: "hypotl", scope: !345, file: !345, line: 426, type: !506, flags: DIFlagPrototyped, spFlags: DISPFlagOptimized)
!578 = !DIImportedEntity(tag: DW_TAG_imported_declaration, scope: !18, entity: !579, file: !340, line: 509)
!579 = !DISubprogram(name: "ilogbl", scope: !345, file: !345, line: 406, type: !580, flags: DIFlagPrototyped, spFlags: DISPFlagOptimized)
!580 = !DISubroutineType(types: !581)
!581 = !{!6, !142}
!582 = !DIImportedEntity(tag: DW_TAG_imported_declaration, scope: !18, entity: !583, file: !340, line: 510)
!583 = !DISubprogram(name: "lgammal", scope: !345, file: !345, line: 449, type: !272, flags: DIFlagPrototyped, spFlags: DISPFlagOptimized)
!584 = !DIImportedEntity(tag: DW_TAG_imported_declaration, scope: !18, entity: !585, file: !340, line: 511)
!585 = !DISubprogram(name: "llrintl", scope: !345, file: !345, line: 488, type: !586, flags: DIFlagPrototyped, spFlags: DISPFlagOptimized)
!586 = !DISubroutineType(types: !587)
!587 = !{!66, !142}
!588 = !DIImportedEntity(tag: DW_TAG_imported_declaration, scope: !18, entity: !589, file: !340, line: 512)
!589 = !DISubprogram(name: "llroundl", scope: !345, file: !345, line: 492, type: !586, flags: DIFlagPrototyped, spFlags: DISPFlagOptimized)
!590 = !DIImportedEntity(tag: DW_TAG_imported_declaration, scope: !18, entity: !591, file: !340, line: 513)
!591 = !DISubprogram(name: "log1pl", scope: !345, file: !345, line: 386, type: !272, flags: DIFlagPrototyped, spFlags: DISPFlagOptimized)
!592 = !DIImportedEntity(tag: DW_TAG_imported_declaration, scope: !18, entity: !593, file: !340, line: 514)
!593 = !DISubprogram(name: "log2l", scope: !345, file: !345, line: 382, type: !272, flags: DIFlagPrototyped, spFlags: DISPFlagOptimized)
!594 = !DIImportedEntity(tag: DW_TAG_imported_declaration, scope: !18, entity: !595, file: !340, line: 515)
!595 = !DISubprogram(name: "logbl", scope: !345, file: !345, line: 390, type: !272, flags: DIFlagPrototyped, spFlags: DISPFlagOptimized)
!596 = !DIImportedEntity(tag: DW_TAG_imported_declaration, scope: !18, entity: !597, file: !340, line: 516)
!597 = !DISubprogram(name: "lrintl", scope: !345, file: !345, line: 473, type: !598, flags: DIFlagPrototyped, spFlags: DISPFlagOptimized)
!598 = !DISubroutineType(types: !599)
!599 = !{!120, !142}
!600 = !DIImportedEntity(tag: DW_TAG_imported_declaration, scope: !18, entity: !601, file: !340, line: 517)
!601 = !DISubprogram(name: "lroundl", scope: !345, file: !345, line: 481, type: !598, flags: DIFlagPrototyped, spFlags: DISPFlagOptimized)
!602 = !DIImportedEntity(tag: DW_TAG_imported_declaration, scope: !18, entity: !603, file: !340, line: 518)
!603 = !DISubprogram(name: "nanl", scope: !345, file: !345, line: 517, type: !604, flags: DIFlagPrototyped, spFlags: DISPFlagOptimized)
!604 = !DISubroutineType(types: !605)
!605 = !{!142, !13}
!606 = !DIImportedEntity(tag: DW_TAG_imported_declaration, scope: !18, entity: !607, file: !340, line: 519)
!607 = !DISubprogram(name: "nearbyintl", scope: !345, file: !345, line: 465, type: !272, flags: DIFlagPrototyped, spFlags: DISPFlagOptimized)
!608 = !DIImportedEntity(tag: DW_TAG_imported_declaration, scope: !18, entity: !609, file: !340, line: 520)
!609 = !DISubprogram(name: "nextafterl", scope: !345, file: !345, line: 521, type: !506, flags: DIFlagPrototyped, spFlags: DISPFlagOptimized)
!610 = !DIImportedEntity(tag: DW_TAG_imported_declaration, scope: !18, entity: !611, file: !340, line: 521)
!611 = !DISubprogram(name: "nexttowardl", scope: !345, file: !345, line: 525, type: !506, flags: DIFlagPrototyped, spFlags: DISPFlagOptimized)
!612 = !DIImportedEntity(tag: DW_TAG_imported_declaration, scope: !18, entity: !613, file: !340, line: 522)
!613 = !DISubprogram(name: "remainderl", scope: !345, file: !345, line: 505, type: !506, flags: DIFlagPrototyped, spFlags: DISPFlagOptimized)
!614 = !DIImportedEntity(tag: DW_TAG_imported_declaration, scope: !18, entity: !615, file: !340, line: 523)
!615 = !DISubprogram(name: "remquol", scope: !345, file: !345, line: 509, type: !616, flags: DIFlagPrototyped, spFlags: DISPFlagOptimized)
!616 = !DISubroutineType(types: !617)
!617 = !{!142, !142, !142, !379}
!618 = !DIImportedEntity(tag: DW_TAG_imported_declaration, scope: !18, entity: !619, file: !340, line: 524)
!619 = !DISubprogram(name: "rintl", scope: !345, file: !345, line: 469, type: !272, flags: DIFlagPrototyped, spFlags: DISPFlagOptimized)
!620 = !DIImportedEntity(tag: DW_TAG_imported_declaration, scope: !18, entity: !621, file: !340, line: 525)
!621 = !DISubprogram(name: "roundl", scope: !345, file: !345, line: 477, type: !272, flags: DIFlagPrototyped, spFlags: DISPFlagOptimized)
!622 = !DIImportedEntity(tag: DW_TAG_imported_declaration, scope: !18, entity: !623, file: !340, line: 526)
!623 = !DISubprogram(name: "scalblnl", scope: !345, file: !345, line: 414, type: !624, flags: DIFlagPrototyped, spFlags: DISPFlagOptimized)
!624 = !DISubroutineType(types: !625)
!625 = !{!142, !142, !120}
!626 = !DIImportedEntity(tag: DW_TAG_imported_declaration, scope: !18, entity: !627, file: !340, line: 527)
!627 = !DISubprogram(name: "scalbnl", scope: !345, file: !345, line: 410, type: !528, flags: DIFlagPrototyped, spFlags: DISPFlagOptimized)
!628 = !DIImportedEntity(tag: DW_TAG_imported_declaration, scope: !18, entity: !629, file: !340, line: 528)
!629 = !DISubprogram(name: "tgammal", scope: !345, file: !345, line: 453, type: !272, flags: DIFlagPrototyped, spFlags: DISPFlagOptimized)
!630 = !DIImportedEntity(tag: DW_TAG_imported_declaration, scope: !18, entity: !631, file: !340, line: 529)
!631 = !DISubprogram(name: "truncl", scope: !345, file: !345, line: 497, type: !272, flags: DIFlagPrototyped, spFlags: DISPFlagOptimized)
!632 = !DIImportedEntity(tag: DW_TAG_imported_declaration, scope: !18, entity: !136, file: !633, line: 68)
!633 = !DIFile(filename: "/opt/homebrew/Cellar/llvm@14/14.0.6/bin/../include/c++/v1/cstring", directory: "")
!634 = !DIImportedEntity(tag: DW_TAG_imported_declaration, scope: !18, entity: !635, file: !633, line: 69)
!635 = !DISubprogram(name: "memcpy", scope: !636, file: !636, line: 72, type: !637, flags: DIFlagPrototyped, spFlags: DISPFlagOptimized)
!636 = !DIFile(filename: "/Library/Developer/CommandLineTools/SDKs/MacOSX13.sdk/usr/include/string.h", directory: "")
!637 = !DISubroutineType(types: !638)
!638 = !{!222, !222, !260, !136}
!639 = !DIImportedEntity(tag: DW_TAG_imported_declaration, scope: !18, entity: !640, file: !633, line: 70)
!640 = !DISubprogram(name: "memmove", scope: !636, file: !636, line: 73, type: !637, flags: DIFlagPrototyped, spFlags: DISPFlagOptimized)
!641 = !DIImportedEntity(tag: DW_TAG_imported_declaration, scope: !18, entity: !642, file: !633, line: 71)
!642 = !DISubprogram(name: "strcpy", scope: !636, file: !636, line: 79, type: !643, flags: DIFlagPrototyped, spFlags: DISPFlagOptimized)
!643 = !DISubroutineType(types: !644)
!644 = !{!11, !11, !13}
!645 = !DIImportedEntity(tag: DW_TAG_imported_declaration, scope: !18, entity: !646, file: !633, line: 72)
!646 = !DISubprogram(name: "strncpy", scope: !636, file: !636, line: 85, type: !647, flags: DIFlagPrototyped, spFlags: DISPFlagOptimized)
!647 = !DISubroutineType(types: !648)
!648 = !{!11, !11, !13, !136}
!649 = !DIImportedEntity(tag: DW_TAG_imported_declaration, scope: !18, entity: !650, file: !633, line: 73)
!650 = !DISubprogram(name: "strcat", scope: !636, file: !636, line: 75, type: !643, flags: DIFlagPrototyped, spFlags: DISPFlagOptimized)
!651 = !DIImportedEntity(tag: DW_TAG_imported_declaration, scope: !18, entity: !652, file: !633, line: 74)
!652 = !DISubprogram(name: "strncat", scope: !636, file: !636, line: 83, type: !647, flags: DIFlagPrototyped, spFlags: DISPFlagOptimized)
!653 = !DIImportedEntity(tag: DW_TAG_imported_declaration, scope: !18, entity: !654, file: !633, line: 75)
!654 = !DISubprogram(name: "memcmp", scope: !636, file: !636, line: 71, type: !655, flags: DIFlagPrototyped, spFlags: DISPFlagOptimized)
!655 = !DISubroutineType(types: !656)
!656 = !{!6, !260, !260, !136}
!657 = !DIImportedEntity(tag: DW_TAG_imported_declaration, scope: !18, entity: !658, file: !633, line: 76)
!658 = !DISubprogram(name: "strcmp", scope: !636, file: !636, line: 77, type: !659, flags: DIFlagPrototyped, spFlags: DISPFlagOptimized)
!659 = !DISubroutineType(types: !660)
!660 = !{!6, !13, !13}
!661 = !DIImportedEntity(tag: DW_TAG_imported_declaration, scope: !18, entity: !662, file: !633, line: 77)
!662 = !DISubprogram(name: "strncmp", scope: !636, file: !636, line: 84, type: !663, flags: DIFlagPrototyped, spFlags: DISPFlagOptimized)
!663 = !DISubroutineType(types: !664)
!664 = !{!6, !13, !13, !136}
!665 = !DIImportedEntity(tag: DW_TAG_imported_declaration, scope: !18, entity: !666, file: !633, line: 78)
!666 = !DISubprogram(name: "strcoll", scope: !636, file: !636, line: 78, type: !659, flags: DIFlagPrototyped, spFlags: DISPFlagOptimized)
!667 = !DIImportedEntity(tag: DW_TAG_imported_declaration, scope: !18, entity: !668, file: !633, line: 79)
!668 = !DISubprogram(name: "strxfrm", scope: !636, file: !636, line: 91, type: !669, flags: DIFlagPrototyped, spFlags: DISPFlagOptimized)
!669 = !DISubroutineType(types: !670)
!670 = !{!136, !11, !13, !136}
!671 = !DIImportedEntity(tag: DW_TAG_imported_declaration, scope: !18, entity: !672, file: !633, line: 80)
!672 = !DISubprogram(name: "memchr", linkageName: "_Z6memchrUa9enable_ifILb1EEPvim", scope: !673, file: !673, line: 98, type: !674, flags: DIFlagPrototyped, spFlags: DISPFlagOptimized)
!673 = !DIFile(filename: "/opt/homebrew/Cellar/llvm@14/14.0.6/bin/../include/c++/v1/string.h", directory: "")
!674 = !DISubroutineType(types: !675)
!675 = !{!222, !222, !6, !136}
!676 = !DIImportedEntity(tag: DW_TAG_imported_declaration, scope: !18, entity: !677, file: !633, line: 81)
!677 = !DISubprogram(name: "strchr", linkageName: "_Z6strchrUa9enable_ifILb1EEPci", scope: !673, file: !673, line: 77, type: !678, flags: DIFlagPrototyped, spFlags: DISPFlagOptimized)
!678 = !DISubroutineType(types: !679)
!679 = !{!11, !11, !6}
!680 = !DIImportedEntity(tag: DW_TAG_imported_declaration, scope: !18, entity: !681, file: !633, line: 82)
!681 = !DISubprogram(name: "strcspn", scope: !636, file: !636, line: 80, type: !682, flags: DIFlagPrototyped, spFlags: DISPFlagOptimized)
!682 = !DISubroutineType(types: !683)
!683 = !{!136, !13, !13}
!684 = !DIImportedEntity(tag: DW_TAG_imported_declaration, scope: !18, entity: !685, file: !633, line: 83)
!685 = !DISubprogram(name: "strpbrk", linkageName: "_Z7strpbrkUa9enable_ifILb1EEPcPKc", scope: !673, file: !673, line: 84, type: !643, flags: DIFlagPrototyped, spFlags: DISPFlagOptimized)
!686 = !DIImportedEntity(tag: DW_TAG_imported_declaration, scope: !18, entity: !687, file: !633, line: 84)
!687 = !DISubprogram(name: "strrchr", linkageName: "_Z7strrchrUa9enable_ifILb1EEPci", scope: !673, file: !673, line: 91, type: !678, flags: DIFlagPrototyped, spFlags: DISPFlagOptimized)
!688 = !DIImportedEntity(tag: DW_TAG_imported_declaration, scope: !18, entity: !689, file: !633, line: 85)
!689 = !DISubprogram(name: "strspn", scope: !636, file: !636, line: 88, type: !682, flags: DIFlagPrototyped, spFlags: DISPFlagOptimized)
!690 = !DIImportedEntity(tag: DW_TAG_imported_declaration, scope: !18, entity: !691, file: !633, line: 86)
!691 = !DISubprogram(name: "strstr", linkageName: "_Z6strstrUa9enable_ifILb1EEPcPKc", scope: !673, file: !673, line: 105, type: !643, flags: DIFlagPrototyped, spFlags: DISPFlagOptimized)
!692 = !DIImportedEntity(tag: DW_TAG_imported_declaration, scope: !18, entity: !693, file: !633, line: 87)
!693 = !DISubprogram(name: "strtok", scope: !636, file: !636, line: 90, type: !643, flags: DIFlagPrototyped, spFlags: DISPFlagOptimized)
!694 = !DIImportedEntity(tag: DW_TAG_imported_declaration, scope: !18, entity: !695, file: !633, line: 88)
!695 = !DISubprogram(name: "memset", scope: !636, file: !636, line: 74, type: !674, flags: DIFlagPrototyped, spFlags: DISPFlagOptimized)
!696 = !DIImportedEntity(tag: DW_TAG_imported_declaration, scope: !18, entity: !697, file: !633, line: 89)
!697 = !DISubprogram(name: "strerror", linkageName: "\01_strerror", scope: !636, file: !636, line: 81, type: !698, flags: DIFlagPrototyped, spFlags: DISPFlagOptimized)
!698 = !DISubroutineType(types: !699)
!699 = !{!11, !6}
!700 = !DIImportedEntity(tag: DW_TAG_imported_declaration, scope: !18, entity: !701, file: !633, line: 90)
!701 = !DISubprogram(name: "strlen", scope: !636, file: !636, line: 82, type: !702, flags: DIFlagPrototyped, spFlags: DISPFlagOptimized)
!702 = !DISubroutineType(types: !703)
!703 = !{!136, !13}
!704 = !DIImportedEntity(tag: DW_TAG_imported_module, scope: !705, entity: !706, file: !708, line: 606)
!705 = !DINamespace(name: "chrono", scope: !18)
!706 = !DINamespace(name: "chrono_literals", scope: !707, exportSymbols: true)
!707 = !DINamespace(name: "literals", scope: !18, exportSymbols: true)
!708 = !DIFile(filename: "/opt/homebrew/Cellar/llvm@14/14.0.6/bin/../include/c++/v1/__chrono/duration.h", directory: "")
!709 = !DIImportedEntity(tag: DW_TAG_imported_declaration, scope: !18, entity: !710, file: !713, line: 71)
!710 = !DIDerivedType(tag: DW_TAG_typedef, name: "clock_t", file: !711, line: 31, baseType: !712)
!711 = !DIFile(filename: "/Library/Developer/CommandLineTools/SDKs/MacOSX13.sdk/usr/include/sys/_types/_clock_t.h", directory: "")
!712 = !DIDerivedType(tag: DW_TAG_typedef, name: "__darwin_clock_t", file: !119, line: 95, baseType: !124)
!713 = !DIFile(filename: "/opt/homebrew/Cellar/llvm@14/14.0.6/bin/../include/c++/v1/ctime", directory: "")
!714 = !DIImportedEntity(tag: DW_TAG_imported_declaration, scope: !18, entity: !136, file: !713, line: 72)
!715 = !DIImportedEntity(tag: DW_TAG_imported_declaration, scope: !18, entity: !716, file: !713, line: 73)
!716 = !DIDerivedType(tag: DW_TAG_typedef, name: "time_t", file: !717, line: 31, baseType: !718)
!717 = !DIFile(filename: "/Library/Developer/CommandLineTools/SDKs/MacOSX13.sdk/usr/include/sys/_types/_time_t.h", directory: "")
!718 = !DIDerivedType(tag: DW_TAG_typedef, name: "__darwin_time_t", file: !119, line: 98, baseType: !120)
!719 = !DIImportedEntity(tag: DW_TAG_imported_declaration, scope: !18, entity: !720, file: !713, line: 74)
!720 = distinct !DICompositeType(tag: DW_TAG_structure_type, name: "tm", file: !721, line: 75, size: 448, flags: DIFlagTypePassByValue, elements: !722, identifier: "_ZTS2tm")
!721 = !DIFile(filename: "/Library/Developer/CommandLineTools/SDKs/MacOSX13.sdk/usr/include/time.h", directory: "")
!722 = !{!723, !724, !725, !726, !727, !728, !729, !730, !731, !732, !733}
!723 = !DIDerivedType(tag: DW_TAG_member, name: "tm_sec", scope: !720, file: !721, line: 76, baseType: !6, size: 32)
!724 = !DIDerivedType(tag: DW_TAG_member, name: "tm_min", scope: !720, file: !721, line: 77, baseType: !6, size: 32, offset: 32)
!725 = !DIDerivedType(tag: DW_TAG_member, name: "tm_hour", scope: !720, file: !721, line: 78, baseType: !6, size: 32, offset: 64)
!726 = !DIDerivedType(tag: DW_TAG_member, name: "tm_mday", scope: !720, file: !721, line: 79, baseType: !6, size: 32, offset: 96)
!727 = !DIDerivedType(tag: DW_TAG_member, name: "tm_mon", scope: !720, file: !721, line: 80, baseType: !6, size: 32, offset: 128)
!728 = !DIDerivedType(tag: DW_TAG_member, name: "tm_year", scope: !720, file: !721, line: 81, baseType: !6, size: 32, offset: 160)
!729 = !DIDerivedType(tag: DW_TAG_member, name: "tm_wday", scope: !720, file: !721, line: 82, baseType: !6, size: 32, offset: 192)
!730 = !DIDerivedType(tag: DW_TAG_member, name: "tm_yday", scope: !720, file: !721, line: 83, baseType: !6, size: 32, offset: 224)
!731 = !DIDerivedType(tag: DW_TAG_member, name: "tm_isdst", scope: !720, file: !721, line: 84, baseType: !6, size: 32, offset: 256)
!732 = !DIDerivedType(tag: DW_TAG_member, name: "tm_gmtoff", scope: !720, file: !721, line: 85, baseType: !120, size: 64, offset: 320)
!733 = !DIDerivedType(tag: DW_TAG_member, name: "tm_zone", scope: !720, file: !721, line: 86, baseType: !11, size: 64, offset: 384)
!734 = !DIImportedEntity(tag: DW_TAG_imported_declaration, scope: !18, entity: !735, file: !713, line: 78)
!735 = !DISubprogram(name: "clock", linkageName: "\01_clock", scope: !721, file: !721, line: 109, type: !736, flags: DIFlagPrototyped, spFlags: DISPFlagOptimized)
!736 = !DISubroutineType(types: !737)
!737 = !{!710}
!738 = !DIImportedEntity(tag: DW_TAG_imported_declaration, scope: !18, entity: !739, file: !713, line: 79)
!739 = !DISubprogram(name: "difftime", scope: !721, file: !721, line: 111, type: !740, flags: DIFlagPrototyped, spFlags: DISPFlagOptimized)
!740 = !DISubroutineType(types: !741)
!741 = !{!168, !716, !716}
!742 = !DIImportedEntity(tag: DW_TAG_imported_declaration, scope: !18, entity: !743, file: !713, line: 80)
!743 = !DISubprogram(name: "mktime", linkageName: "\01_mktime", scope: !721, file: !721, line: 115, type: !744, flags: DIFlagPrototyped, spFlags: DISPFlagOptimized)
!744 = !DISubroutineType(types: !745)
!745 = !{!716, !746}
!746 = !DIDerivedType(tag: DW_TAG_pointer_type, baseType: !720, size: 64)
!747 = !DIImportedEntity(tag: DW_TAG_imported_declaration, scope: !18, entity: !748, file: !713, line: 81)
!748 = !DISubprogram(name: "time", scope: !721, file: !721, line: 118, type: !749, flags: DIFlagPrototyped, spFlags: DISPFlagOptimized)
!749 = !DISubroutineType(types: !750)
!750 = !{!716, !751}
!751 = !DIDerivedType(tag: DW_TAG_pointer_type, baseType: !716, size: 64)
!752 = !DIImportedEntity(tag: DW_TAG_imported_declaration, scope: !18, entity: !753, file: !713, line: 82)
!753 = !DISubprogram(name: "asctime", scope: !721, file: !721, line: 108, type: !754, flags: DIFlagPrototyped, spFlags: DISPFlagOptimized)
!754 = !DISubroutineType(types: !755)
!755 = !{!11, !756}
!756 = !DIDerivedType(tag: DW_TAG_pointer_type, baseType: !757, size: 64)
!757 = !DIDerivedType(tag: DW_TAG_const_type, baseType: !720)
!758 = !DIImportedEntity(tag: DW_TAG_imported_declaration, scope: !18, entity: !759, file: !713, line: 83)
!759 = !DISubprogram(name: "ctime", scope: !721, file: !721, line: 110, type: !760, flags: DIFlagPrototyped, spFlags: DISPFlagOptimized)
!760 = !DISubroutineType(types: !761)
!761 = !{!11, !762}
!762 = !DIDerivedType(tag: DW_TAG_pointer_type, baseType: !763, size: 64)
!763 = !DIDerivedType(tag: DW_TAG_const_type, baseType: !716)
!764 = !DIImportedEntity(tag: DW_TAG_imported_declaration, scope: !18, entity: !765, file: !713, line: 84)
!765 = !DISubprogram(name: "gmtime", scope: !721, file: !721, line: 113, type: !766, flags: DIFlagPrototyped, spFlags: DISPFlagOptimized)
!766 = !DISubroutineType(types: !767)
!767 = !{!746, !762}
!768 = !DIImportedEntity(tag: DW_TAG_imported_declaration, scope: !18, entity: !769, file: !713, line: 85)
!769 = !DISubprogram(name: "localtime", scope: !721, file: !721, line: 114, type: !766, flags: DIFlagPrototyped, spFlags: DISPFlagOptimized)
!770 = !DIImportedEntity(tag: DW_TAG_imported_declaration, scope: !18, entity: !771, file: !713, line: 86)
!771 = !DISubprogram(name: "strftime", linkageName: "\01_strftime", scope: !721, file: !721, line: 116, type: !772, flags: DIFlagPrototyped, spFlags: DISPFlagOptimized)
!772 = !DISubroutineType(types: !773)
!773 = !{!136, !11, !136, !13, !756}
!774 = !DIImportedEntity(tag: DW_TAG_imported_declaration, scope: !18, entity: !775, file: !828, line: 107)
!775 = !DIDerivedType(tag: DW_TAG_typedef, name: "FILE", file: !776, line: 157, baseType: !777)
!776 = !DIFile(filename: "/Library/Developer/CommandLineTools/SDKs/MacOSX13.sdk/usr/include/_stdio.h", directory: "")
!777 = distinct !DICompositeType(tag: DW_TAG_structure_type, name: "__sFILE", file: !776, line: 126, size: 1216, flags: DIFlagTypePassByValue, elements: !778, identifier: "_ZTS7__sFILE")
!778 = !{!779, !781, !782, !783, !784, !785, !790, !791, !792, !796, !800, !808, !812, !813, !816, !817, !821, !825, !826, !827}
!779 = !DIDerivedType(tag: DW_TAG_member, name: "_p", scope: !777, file: !776, line: 127, baseType: !780, size: 64)
!780 = !DIDerivedType(tag: DW_TAG_pointer_type, baseType: !10, size: 64)
!781 = !DIDerivedType(tag: DW_TAG_member, name: "_r", scope: !777, file: !776, line: 128, baseType: !6, size: 32, offset: 64)
!782 = !DIDerivedType(tag: DW_TAG_member, name: "_w", scope: !777, file: !776, line: 129, baseType: !6, size: 32, offset: 96)
!783 = !DIDerivedType(tag: DW_TAG_member, name: "_flags", scope: !777, file: !776, line: 130, baseType: !59, size: 16, offset: 128)
!784 = !DIDerivedType(tag: DW_TAG_member, name: "_file", scope: !777, file: !776, line: 131, baseType: !59, size: 16, offset: 144)
!785 = !DIDerivedType(tag: DW_TAG_member, name: "_bf", scope: !777, file: !776, line: 132, baseType: !786, size: 128, offset: 192)
!786 = distinct !DICompositeType(tag: DW_TAG_structure_type, name: "__sbuf", file: !776, line: 92, size: 128, flags: DIFlagTypePassByValue, elements: !787, identifier: "_ZTS6__sbuf")
!787 = !{!788, !789}
!788 = !DIDerivedType(tag: DW_TAG_member, name: "_base", scope: !786, file: !776, line: 93, baseType: !780, size: 64)
!789 = !DIDerivedType(tag: DW_TAG_member, name: "_size", scope: !786, file: !776, line: 94, baseType: !6, size: 32, offset: 64)
!790 = !DIDerivedType(tag: DW_TAG_member, name: "_lbfsize", scope: !777, file: !776, line: 133, baseType: !6, size: 32, offset: 320)
!791 = !DIDerivedType(tag: DW_TAG_member, name: "_cookie", scope: !777, file: !776, line: 136, baseType: !222, size: 64, offset: 384)
!792 = !DIDerivedType(tag: DW_TAG_member, name: "_close", scope: !777, file: !776, line: 137, baseType: !793, size: 64, offset: 448)
!793 = !DIDerivedType(tag: DW_TAG_pointer_type, baseType: !794, size: 64)
!794 = !DISubroutineType(types: !795)
!795 = !{!6, !222}
!796 = !DIDerivedType(tag: DW_TAG_member, name: "_read", scope: !777, file: !776, line: 138, baseType: !797, size: 64, offset: 512)
!797 = !DIDerivedType(tag: DW_TAG_pointer_type, baseType: !798, size: 64)
!798 = !DISubroutineType(types: !799)
!799 = !{!6, !222, !11, !6}
!800 = !DIDerivedType(tag: DW_TAG_member, name: "_seek", scope: !777, file: !776, line: 139, baseType: !801, size: 64, offset: 576)
!801 = !DIDerivedType(tag: DW_TAG_pointer_type, baseType: !802, size: 64)
!802 = !DISubroutineType(types: !803)
!803 = !{!804, !222, !804, !6}
!804 = !DIDerivedType(tag: DW_TAG_typedef, name: "fpos_t", file: !776, line: 81, baseType: !805)
!805 = !DIDerivedType(tag: DW_TAG_typedef, name: "__darwin_off_t", file: !806, line: 71, baseType: !807)
!806 = !DIFile(filename: "/Library/Developer/CommandLineTools/SDKs/MacOSX13.sdk/usr/include/sys/_types.h", directory: "")
!807 = !DIDerivedType(tag: DW_TAG_typedef, name: "__int64_t", file: !119, line: 24, baseType: !66)
!808 = !DIDerivedType(tag: DW_TAG_member, name: "_write", scope: !777, file: !776, line: 140, baseType: !809, size: 64, offset: 640)
!809 = !DIDerivedType(tag: DW_TAG_pointer_type, baseType: !810, size: 64)
!810 = !DISubroutineType(types: !811)
!811 = !{!6, !222, !13, !6}
!812 = !DIDerivedType(tag: DW_TAG_member, name: "_ub", scope: !777, file: !776, line: 143, baseType: !786, size: 128, offset: 704)
!813 = !DIDerivedType(tag: DW_TAG_member, name: "_extra", scope: !777, file: !776, line: 144, baseType: !814, size: 64, offset: 832)
!814 = !DIDerivedType(tag: DW_TAG_pointer_type, baseType: !815, size: 64)
!815 = !DICompositeType(tag: DW_TAG_structure_type, name: "__sFILEX", file: !776, line: 98, flags: DIFlagFwdDecl | DIFlagNonTrivial, identifier: "_ZTS8__sFILEX")
!816 = !DIDerivedType(tag: DW_TAG_member, name: "_ur", scope: !777, file: !776, line: 145, baseType: !6, size: 32, offset: 896)
!817 = !DIDerivedType(tag: DW_TAG_member, name: "_ubuf", scope: !777, file: !776, line: 148, baseType: !818, size: 24, offset: 928)
!818 = !DICompositeType(tag: DW_TAG_array_type, baseType: !10, size: 24, elements: !819)
!819 = !{!820}
!820 = !DISubrange(count: 3)
!821 = !DIDerivedType(tag: DW_TAG_member, name: "_nbuf", scope: !777, file: !776, line: 149, baseType: !822, size: 8, offset: 952)
!822 = !DICompositeType(tag: DW_TAG_array_type, baseType: !10, size: 8, elements: !823)
!823 = !{!824}
!824 = !DISubrange(count: 1)
!825 = !DIDerivedType(tag: DW_TAG_member, name: "_lb", scope: !777, file: !776, line: 152, baseType: !786, size: 128, offset: 960)
!826 = !DIDerivedType(tag: DW_TAG_member, name: "_blksize", scope: !777, file: !776, line: 155, baseType: !6, size: 32, offset: 1088)
!827 = !DIDerivedType(tag: DW_TAG_member, name: "_offset", scope: !777, file: !776, line: 156, baseType: !804, size: 64, offset: 1152)
!828 = !DIFile(filename: "/opt/homebrew/Cellar/llvm@14/14.0.6/bin/../include/c++/v1/cstdio", directory: "")
!829 = !DIImportedEntity(tag: DW_TAG_imported_declaration, scope: !18, entity: !804, file: !828, line: 108)
!830 = !DIImportedEntity(tag: DW_TAG_imported_declaration, scope: !18, entity: !136, file: !828, line: 109)
!831 = !DIImportedEntity(tag: DW_TAG_imported_declaration, scope: !18, entity: !832, file: !828, line: 111)
!832 = !DISubprogram(name: "fclose", scope: !833, file: !833, line: 143, type: !834, flags: DIFlagPrototyped, spFlags: DISPFlagOptimized)
!833 = !DIFile(filename: "/Library/Developer/CommandLineTools/SDKs/MacOSX13.sdk/usr/include/stdio.h", directory: "")
!834 = !DISubroutineType(types: !835)
!835 = !{!6, !836}
!836 = !DIDerivedType(tag: DW_TAG_pointer_type, baseType: !775, size: 64)
!837 = !DIImportedEntity(tag: DW_TAG_imported_declaration, scope: !18, entity: !838, file: !828, line: 112)
!838 = !DISubprogram(name: "fflush", scope: !833, file: !833, line: 146, type: !834, flags: DIFlagPrototyped, spFlags: DISPFlagOptimized)
!839 = !DIImportedEntity(tag: DW_TAG_imported_declaration, scope: !18, entity: !840, file: !828, line: 113)
!840 = !DISubprogram(name: "setbuf", scope: !833, file: !833, line: 183, type: !841, flags: DIFlagPrototyped, spFlags: DISPFlagOptimized)
!841 = !DISubroutineType(types: !842)
!842 = !{null, !836, !11}
!843 = !DIImportedEntity(tag: DW_TAG_imported_declaration, scope: !18, entity: !844, file: !828, line: 114)
!844 = !DISubprogram(name: "setvbuf", scope: !833, file: !833, line: 184, type: !845, flags: DIFlagPrototyped, spFlags: DISPFlagOptimized)
!845 = !DISubroutineType(types: !846)
!846 = !{!6, !836, !11, !6, !136}
!847 = !DIImportedEntity(tag: DW_TAG_imported_declaration, scope: !18, entity: !848, file: !828, line: 115)
!848 = !DISubprogram(name: "fprintf", scope: !833, file: !833, line: 155, type: !849, flags: DIFlagPrototyped, spFlags: DISPFlagOptimized)
!849 = !DISubroutineType(types: !850)
!850 = !{!6, !836, !13, null}
!851 = !DIImportedEntity(tag: DW_TAG_imported_declaration, scope: !18, entity: !852, file: !828, line: 116)
!852 = !DISubprogram(name: "fscanf", scope: !833, file: !833, line: 161, type: !849, flags: DIFlagPrototyped, spFlags: DISPFlagOptimized)
!853 = !DIImportedEntity(tag: DW_TAG_imported_declaration, scope: !18, entity: !854, file: !828, line: 117)
!854 = !DISubprogram(name: "snprintf", scope: !833, file: !833, line: 344, type: !855, flags: DIFlagPrototyped, spFlags: DISPFlagOptimized)
!855 = !DISubroutineType(types: !856)
!856 = !{!6, !11, !136, !13, null}
!857 = !DIImportedEntity(tag: DW_TAG_imported_declaration, scope: !18, entity: !858, file: !828, line: 118)
!858 = !DISubprogram(name: "sprintf", scope: !833, file: !833, line: 190, type: !859, flags: DIFlagPrototyped, spFlags: DISPFlagOptimized)
!859 = !DISubroutineType(types: !860)
!860 = !{!6, !11, !13, null}
!861 = !DIImportedEntity(tag: DW_TAG_imported_declaration, scope: !18, entity: !862, file: !828, line: 119)
!862 = !DISubprogram(name: "sscanf", scope: !833, file: !833, line: 192, type: !863, flags: DIFlagPrototyped, spFlags: DISPFlagOptimized)
!863 = !DISubroutineType(types: !864)
!864 = !{!6, !13, !13, null}
!865 = !DIImportedEntity(tag: DW_TAG_imported_declaration, scope: !18, entity: !866, file: !828, line: 120)
!866 = !DISubprogram(name: "vfprintf", scope: !833, file: !833, line: 202, type: !867, flags: DIFlagPrototyped, spFlags: DISPFlagOptimized)
!867 = !DISubroutineType(types: !868)
!868 = !{!6, !836, !13, !869}
!869 = !DIDerivedType(tag: DW_TAG_typedef, name: "va_list", file: !870, line: 32, baseType: !871)
!870 = !DIFile(filename: "/Library/Developer/CommandLineTools/SDKs/MacOSX13.sdk/usr/include/sys/_types/_va_list.h", directory: "")
!871 = !DIDerivedType(tag: DW_TAG_typedef, name: "__darwin_va_list", file: !119, line: 76, baseType: !872)
!872 = !DIDerivedType(tag: DW_TAG_typedef, name: "__builtin_va_list", file: !8, baseType: !11)
!873 = !DIImportedEntity(tag: DW_TAG_imported_declaration, scope: !18, entity: !874, file: !828, line: 121)
!874 = !DISubprogram(name: "vfscanf", scope: !833, file: !833, line: 345, type: !867, flags: DIFlagPrototyped, spFlags: DISPFlagOptimized)
!875 = !DIImportedEntity(tag: DW_TAG_imported_declaration, scope: !18, entity: !876, file: !828, line: 122)
!876 = !DISubprogram(name: "vsscanf", scope: !833, file: !833, line: 348, type: !877, flags: DIFlagPrototyped, spFlags: DISPFlagOptimized)
!877 = !DISubroutineType(types: !878)
!878 = !{!6, !13, !13, !869}
!879 = !DIImportedEntity(tag: DW_TAG_imported_declaration, scope: !18, entity: !880, file: !828, line: 123)
!880 = !DISubprogram(name: "vsnprintf", scope: !833, file: !833, line: 347, type: !881, flags: DIFlagPrototyped, spFlags: DISPFlagOptimized)
!881 = !DISubroutineType(types: !882)
!882 = !{!6, !11, !136, !13, !869}
!883 = !DIImportedEntity(tag: DW_TAG_imported_declaration, scope: !18, entity: !884, file: !828, line: 124)
!884 = !DISubprogram(name: "vsprintf", scope: !833, file: !833, line: 209, type: !885, flags: DIFlagPrototyped, spFlags: DISPFlagOptimized)
!885 = !DISubroutineType(types: !886)
!886 = !{!6, !11, !13, !869}
!887 = !DIImportedEntity(tag: DW_TAG_imported_declaration, scope: !18, entity: !888, file: !828, line: 125)
!888 = !DISubprogram(name: "fgetc", scope: !833, file: !833, line: 147, type: !834, flags: DIFlagPrototyped, spFlags: DISPFlagOptimized)
!889 = !DIImportedEntity(tag: DW_TAG_imported_declaration, scope: !18, entity: !890, file: !828, line: 126)
!890 = !DISubprogram(name: "fgets", scope: !833, file: !833, line: 149, type: !891, flags: DIFlagPrototyped, spFlags: DISPFlagOptimized)
!891 = !DISubroutineType(types: !892)
!892 = !{!11, !11, !6, !836}
!893 = !DIImportedEntity(tag: DW_TAG_imported_declaration, scope: !18, entity: !894, file: !828, line: 127)
!894 = !DISubprogram(name: "fputc", scope: !833, file: !833, line: 156, type: !895, flags: DIFlagPrototyped, spFlags: DISPFlagOptimized)
!895 = !DISubroutineType(types: !896)
!896 = !{!6, !6, !836}
!897 = !DIImportedEntity(tag: DW_TAG_imported_declaration, scope: !18, entity: !898, file: !828, line: 128)
!898 = !DISubprogram(name: "fputs", linkageName: "\01_fputs", scope: !833, file: !833, line: 157, type: !899, flags: DIFlagPrototyped, spFlags: DISPFlagOptimized)
!899 = !DISubroutineType(types: !900)
!900 = !{!6, !13, !836}
!901 = !DIImportedEntity(tag: DW_TAG_imported_declaration, scope: !18, entity: !902, file: !828, line: 129)
!902 = !DISubprogram(name: "getc", scope: !833, file: !833, line: 166, type: !834, flags: DIFlagPrototyped, spFlags: DISPFlagOptimized)
!903 = !DIImportedEntity(tag: DW_TAG_imported_declaration, scope: !18, entity: !904, file: !828, line: 130)
!904 = !DISubprogram(name: "putc", scope: !833, file: !833, line: 176, type: !895, flags: DIFlagPrototyped, spFlags: DISPFlagOptimized)
!905 = !DIImportedEntity(tag: DW_TAG_imported_declaration, scope: !18, entity: !906, file: !828, line: 131)
!906 = !DISubprogram(name: "ungetc", scope: !833, file: !833, line: 201, type: !895, flags: DIFlagPrototyped, spFlags: DISPFlagOptimized)
!907 = !DIImportedEntity(tag: DW_TAG_imported_declaration, scope: !18, entity: !908, file: !828, line: 132)
!908 = !DISubprogram(name: "fread", scope: !833, file: !833, line: 158, type: !909, flags: DIFlagPrototyped, spFlags: DISPFlagOptimized)
!909 = !DISubroutineType(types: !910)
!910 = !{!136, !222, !136, !136, !836}
!911 = !DIImportedEntity(tag: DW_TAG_imported_declaration, scope: !18, entity: !912, file: !828, line: 133)
!912 = !DISubprogram(name: "fwrite", linkageName: "\01_fwrite", scope: !833, file: !833, line: 165, type: !913, flags: DIFlagPrototyped, spFlags: DISPFlagOptimized)
!913 = !DISubroutineType(types: !914)
!914 = !{!136, !260, !136, !136, !836}
!915 = !DIImportedEntity(tag: DW_TAG_imported_declaration, scope: !18, entity: !916, file: !828, line: 135)
!916 = !DISubprogram(name: "fgetpos", scope: !833, file: !833, line: 148, type: !917, flags: DIFlagPrototyped, spFlags: DISPFlagOptimized)
!917 = !DISubroutineType(types: !918)
!918 = !{!6, !836, !919}
!919 = !DIDerivedType(tag: DW_TAG_pointer_type, baseType: !804, size: 64)
!920 = !DIImportedEntity(tag: DW_TAG_imported_declaration, scope: !18, entity: !921, file: !828, line: 137)
!921 = !DISubprogram(name: "fseek", scope: !833, file: !833, line: 162, type: !922, flags: DIFlagPrototyped, spFlags: DISPFlagOptimized)
!922 = !DISubroutineType(types: !923)
!923 = !{!6, !836, !120, !6}
!924 = !DIImportedEntity(tag: DW_TAG_imported_declaration, scope: !18, entity: !925, file: !828, line: 139)
!925 = !DISubprogram(name: "fsetpos", scope: !833, file: !833, line: 163, type: !926, flags: DIFlagPrototyped, spFlags: DISPFlagOptimized)
!926 = !DISubroutineType(types: !927)
!927 = !{!6, !836, !928}
!928 = !DIDerivedType(tag: DW_TAG_pointer_type, baseType: !929, size: 64)
!929 = !DIDerivedType(tag: DW_TAG_const_type, baseType: !804)
!930 = !DIImportedEntity(tag: DW_TAG_imported_declaration, scope: !18, entity: !931, file: !828, line: 141)
!931 = !DISubprogram(name: "ftell", scope: !833, file: !833, line: 164, type: !932, flags: DIFlagPrototyped, spFlags: DISPFlagOptimized)
!932 = !DISubroutineType(types: !933)
!933 = !{!120, !836}
!934 = !DIImportedEntity(tag: DW_TAG_imported_declaration, scope: !18, entity: !935, file: !828, line: 142)
!935 = !DISubprogram(name: "rewind", scope: !833, file: !833, line: 181, type: !936, flags: DIFlagPrototyped, spFlags: DISPFlagOptimized)
!936 = !DISubroutineType(types: !937)
!937 = !{null, !836}
!938 = !DIImportedEntity(tag: DW_TAG_imported_declaration, scope: !18, entity: !939, file: !828, line: 143)
!939 = !DISubprogram(name: "clearerr", scope: !833, file: !833, line: 142, type: !936, flags: DIFlagPrototyped, spFlags: DISPFlagOptimized)
!940 = !DIImportedEntity(tag: DW_TAG_imported_declaration, scope: !18, entity: !941, file: !828, line: 144)
!941 = !DISubprogram(name: "feof", scope: !833, file: !833, line: 144, type: !834, flags: DIFlagPrototyped, spFlags: DISPFlagOptimized)
!942 = !DIImportedEntity(tag: DW_TAG_imported_declaration, scope: !18, entity: !943, file: !828, line: 145)
!943 = !DISubprogram(name: "ferror", scope: !833, file: !833, line: 145, type: !834, flags: DIFlagPrototyped, spFlags: DISPFlagOptimized)
!944 = !DIImportedEntity(tag: DW_TAG_imported_declaration, scope: !18, entity: !945, file: !828, line: 146)
!945 = !DISubprogram(name: "perror", scope: !833, file: !833, line: 174, type: !946, flags: DIFlagPrototyped, spFlags: DISPFlagOptimized)
!946 = !DISubroutineType(types: !947)
!947 = !{null, !13}
!948 = !DIImportedEntity(tag: DW_TAG_imported_declaration, scope: !18, entity: !949, file: !828, line: 148)
!949 = !DISubprogram(name: "fopen", linkageName: "\01_fopen", scope: !833, file: !833, line: 153, type: !950, flags: DIFlagPrototyped, spFlags: DISPFlagOptimized)
!950 = !DISubroutineType(types: !951)
!951 = !{!836, !13, !13}
!952 = !DIImportedEntity(tag: DW_TAG_imported_declaration, scope: !18, entity: !953, file: !828, line: 149)
!953 = !DISubprogram(name: "freopen", linkageName: "\01_freopen", scope: !833, file: !833, line: 159, type: !954, flags: DIFlagPrototyped, spFlags: DISPFlagOptimized)
!954 = !DISubroutineType(types: !955)
!955 = !{!836, !13, !13, !836}
!956 = !DIImportedEntity(tag: DW_TAG_imported_declaration, scope: !18, entity: !957, file: !828, line: 150)
!957 = !DISubprogram(name: "remove", scope: !833, file: !833, line: 179, type: !171, flags: DIFlagPrototyped, spFlags: DISPFlagOptimized)
!958 = !DIImportedEntity(tag: DW_TAG_imported_declaration, scope: !18, entity: !959, file: !828, line: 151)
!959 = !DISubprogram(name: "rename", scope: !833, file: !833, line: 180, type: !659, flags: DIFlagPrototyped, spFlags: DISPFlagOptimized)
!960 = !DIImportedEntity(tag: DW_TAG_imported_declaration, scope: !18, entity: !961, file: !828, line: 152)
!961 = !DISubprogram(name: "tmpfile", scope: !833, file: !833, line: 193, type: !962, flags: DIFlagPrototyped, spFlags: DISPFlagOptimized)
!962 = !DISubroutineType(types: !963)
!963 = !{!836}
!964 = !DIImportedEntity(tag: DW_TAG_imported_declaration, scope: !18, entity: !965, file: !828, line: 153)
!965 = !DISubprogram(name: "tmpnam", scope: !833, file: !833, line: 199, type: !966, flags: DIFlagPrototyped, spFlags: DISPFlagOptimized)
!966 = !DISubroutineType(types: !967)
!967 = !{!11, !11}
!968 = !DIImportedEntity(tag: DW_TAG_imported_declaration, scope: !18, entity: !969, file: !828, line: 155)
!969 = !DISubprogram(name: "getchar", scope: !833, file: !833, line: 167, type: !4, flags: DIFlagPrototyped, spFlags: DISPFlagOptimized)
!970 = !DIImportedEntity(tag: DW_TAG_imported_declaration, scope: !18, entity: !971, file: !828, line: 159)
!971 = !DISubprogram(name: "scanf", scope: !833, file: !833, line: 182, type: !972, flags: DIFlagPrototyped, spFlags: DISPFlagOptimized)
!972 = !DISubroutineType(types: !973)
!973 = !{!6, !13, null}
!974 = !DIImportedEntity(tag: DW_TAG_imported_declaration, scope: !18, entity: !975, file: !828, line: 160)
!975 = !DISubprogram(name: "vscanf", scope: !833, file: !833, line: 346, type: !976, flags: DIFlagPrototyped, spFlags: DISPFlagOptimized)
!976 = !DISubroutineType(types: !977)
!977 = !{!6, !13, !869}
!978 = !DIImportedEntity(tag: DW_TAG_imported_declaration, scope: !18, entity: !979, file: !828, line: 162)
!979 = !DISubprogram(name: "printf", scope: !833, file: !833, line: 175, type: !972, flags: DIFlagPrototyped, spFlags: DISPFlagOptimized)
!980 = !DIImportedEntity(tag: DW_TAG_imported_declaration, scope: !18, entity: !981, file: !828, line: 163)
!981 = !DISubprogram(name: "putchar", scope: !833, file: !833, line: 177, type: !22, flags: DIFlagPrototyped, spFlags: DISPFlagOptimized)
!982 = !DIImportedEntity(tag: DW_TAG_imported_declaration, scope: !18, entity: !983, file: !828, line: 164)
!983 = !DISubprogram(name: "puts", scope: !833, file: !833, line: 178, type: !171, flags: DIFlagPrototyped, spFlags: DISPFlagOptimized)
!984 = !DIImportedEntity(tag: DW_TAG_imported_declaration, scope: !18, entity: !985, file: !828, line: 165)
!985 = !DISubprogram(name: "vprintf", scope: !833, file: !833, line: 203, type: !976, flags: DIFlagPrototyped, spFlags: DISPFlagOptimized)
!986 = !DIImportedEntity(tag: DW_TAG_imported_declaration, scope: !18, entity: !987, file: !990, line: 63)
!987 = !DIDerivedType(tag: DW_TAG_typedef, name: "wint_t", file: !988, line: 32, baseType: !989)
!988 = !DIFile(filename: "/Library/Developer/CommandLineTools/SDKs/MacOSX13.sdk/usr/include/sys/_types/_wint_t.h", directory: "")
!989 = !DIDerivedType(tag: DW_TAG_typedef, name: "__darwin_wint_t", file: !119, line: 90, baseType: !6)
!990 = !DIFile(filename: "/opt/homebrew/Cellar/llvm@14/14.0.6/bin/../include/c++/v1/cwctype", directory: "")
!991 = !DIImportedEntity(tag: DW_TAG_imported_declaration, scope: !18, entity: !992, file: !990, line: 64)
!992 = !DIDerivedType(tag: DW_TAG_typedef, name: "wctrans_t", file: !993, line: 32, baseType: !994)
!993 = !DIFile(filename: "/Library/Developer/CommandLineTools/SDKs/MacOSX13.sdk/usr/include/_types/_wctrans_t.h", directory: "")
!994 = !DIDerivedType(tag: DW_TAG_typedef, name: "__darwin_wctrans_t", file: !995, line: 41, baseType: !6)
!995 = !DIFile(filename: "/Library/Developer/CommandLineTools/SDKs/MacOSX13.sdk/usr/include/_types.h", directory: "")
!996 = !DIImportedEntity(tag: DW_TAG_imported_declaration, scope: !18, entity: !997, file: !990, line: 65)
!997 = !DIDerivedType(tag: DW_TAG_typedef, name: "wctype_t", file: !998, line: 32, baseType: !999)
!998 = !DIFile(filename: "/Library/Developer/CommandLineTools/SDKs/MacOSX13.sdk/usr/include/_types/_wctype_t.h", directory: "")
!999 = !DIDerivedType(tag: DW_TAG_typedef, name: "__darwin_wctype_t", file: !995, line: 43, baseType: !1000)
!1000 = !DIDerivedType(tag: DW_TAG_typedef, name: "__uint32_t", file: !119, line: 23, baseType: !77)
!1001 = !DIImportedEntity(tag: DW_TAG_imported_declaration, scope: !18, entity: !1002, file: !990, line: 66)
!1002 = !DISubprogram(name: "iswalnum", linkageName: "_Z8iswalnumi", scope: !1003, file: !1003, line: 51, type: !1004, flags: DIFlagPrototyped, spFlags: DISPFlagOptimized)
!1003 = !DIFile(filename: "/Library/Developer/CommandLineTools/SDKs/MacOSX13.sdk/usr/include/_wctype.h", directory: "")
!1004 = !DISubroutineType(types: !1005)
!1005 = !{!6, !987}
!1006 = !DIImportedEntity(tag: DW_TAG_imported_declaration, scope: !18, entity: !1007, file: !990, line: 67)
!1007 = !DISubprogram(name: "iswalpha", linkageName: "_Z8iswalphai", scope: !1003, file: !1003, line: 57, type: !1004, flags: DIFlagPrototyped, spFlags: DISPFlagOptimized)
!1008 = !DIImportedEntity(tag: DW_TAG_imported_declaration, scope: !18, entity: !1009, file: !990, line: 68)
!1009 = !DISubprogram(name: "iswblank", linkageName: "_Z8iswblanki", scope: !1010, file: !1010, line: 50, type: !1004, flags: DIFlagPrototyped, spFlags: DISPFlagOptimized)
!1010 = !DIFile(filename: "/Library/Developer/CommandLineTools/SDKs/MacOSX13.sdk/usr/include/wctype.h", directory: "")
!1011 = !DIImportedEntity(tag: DW_TAG_imported_declaration, scope: !18, entity: !1012, file: !990, line: 69)
!1012 = !DISubprogram(name: "iswcntrl", linkageName: "_Z8iswcntrli", scope: !1003, file: !1003, line: 63, type: !1004, flags: DIFlagPrototyped, spFlags: DISPFlagOptimized)
!1013 = !DIImportedEntity(tag: DW_TAG_imported_declaration, scope: !18, entity: !1014, file: !990, line: 70)
!1014 = !DISubprogram(name: "iswdigit", linkageName: "_Z8iswdigiti", scope: !1003, file: !1003, line: 75, type: !1004, flags: DIFlagPrototyped, spFlags: DISPFlagOptimized)
!1015 = !DIImportedEntity(tag: DW_TAG_imported_declaration, scope: !18, entity: !1016, file: !990, line: 71)
!1016 = !DISubprogram(name: "iswgraph", linkageName: "_Z8iswgraphi", scope: !1003, file: !1003, line: 81, type: !1004, flags: DIFlagPrototyped, spFlags: DISPFlagOptimized)
!1017 = !DIImportedEntity(tag: DW_TAG_imported_declaration, scope: !18, entity: !1018, file: !990, line: 72)
!1018 = !DISubprogram(name: "iswlower", linkageName: "_Z8iswloweri", scope: !1003, file: !1003, line: 87, type: !1004, flags: DIFlagPrototyped, spFlags: DISPFlagOptimized)
!1019 = !DIImportedEntity(tag: DW_TAG_imported_declaration, scope: !18, entity: !1020, file: !990, line: 73)
!1020 = !DISubprogram(name: "iswprint", linkageName: "_Z8iswprinti", scope: !1003, file: !1003, line: 93, type: !1004, flags: DIFlagPrototyped, spFlags: DISPFlagOptimized)
!1021 = !DIImportedEntity(tag: DW_TAG_imported_declaration, scope: !18, entity: !1022, file: !990, line: 74)
!1022 = !DISubprogram(name: "iswpunct", linkageName: "_Z8iswpuncti", scope: !1003, file: !1003, line: 99, type: !1004, flags: DIFlagPrototyped, spFlags: DISPFlagOptimized)
!1023 = !DIImportedEntity(tag: DW_TAG_imported_declaration, scope: !18, entity: !1024, file: !990, line: 75)
!1024 = !DISubprogram(name: "iswspace", linkageName: "_Z8iswspacei", scope: !1003, file: !1003, line: 105, type: !1004, flags: DIFlagPrototyped, spFlags: DISPFlagOptimized)
!1025 = !DIImportedEntity(tag: DW_TAG_imported_declaration, scope: !18, entity: !1026, file: !990, line: 76)
!1026 = !DISubprogram(name: "iswupper", linkageName: "_Z8iswupperi", scope: !1003, file: !1003, line: 111, type: !1004, flags: DIFlagPrototyped, spFlags: DISPFlagOptimized)
!1027 = !DIImportedEntity(tag: DW_TAG_imported_declaration, scope: !18, entity: !1028, file: !990, line: 77)
!1028 = !DISubprogram(name: "iswxdigit", linkageName: "_Z9iswxdigiti", scope: !1003, file: !1003, line: 117, type: !1004, flags: DIFlagPrototyped, spFlags: DISPFlagOptimized)
!1029 = !DIImportedEntity(tag: DW_TAG_imported_declaration, scope: !18, entity: !1030, file: !990, line: 78)
!1030 = !DISubprogram(name: "iswctype", linkageName: "_Z8iswctypeij", scope: !1003, file: !1003, line: 69, type: !1031, flags: DIFlagPrototyped, spFlags: DISPFlagOptimized)
!1031 = !DISubroutineType(types: !1032)
!1032 = !{!6, !987, !997}
!1033 = !DIImportedEntity(tag: DW_TAG_imported_declaration, scope: !18, entity: !1034, file: !990, line: 79)
!1034 = !DISubprogram(name: "wctype", scope: !1003, file: !1003, line: 157, type: !1035, flags: DIFlagPrototyped, spFlags: DISPFlagOptimized)
!1035 = !DISubroutineType(types: !1036)
!1036 = !{!997, !13}
!1037 = !DIImportedEntity(tag: DW_TAG_imported_declaration, scope: !18, entity: !1038, file: !990, line: 80)
!1038 = !DISubprogram(name: "towlower", linkageName: "_Z8towloweri", scope: !1003, file: !1003, line: 123, type: !1039, flags: DIFlagPrototyped, spFlags: DISPFlagOptimized)
!1039 = !DISubroutineType(types: !1040)
!1040 = !{!987, !987}
!1041 = !DIImportedEntity(tag: DW_TAG_imported_declaration, scope: !18, entity: !1042, file: !990, line: 81)
!1042 = !DISubprogram(name: "towupper", linkageName: "_Z8towupperi", scope: !1003, file: !1003, line: 129, type: !1039, flags: DIFlagPrototyped, spFlags: DISPFlagOptimized)
!1043 = !DIImportedEntity(tag: DW_TAG_imported_declaration, scope: !18, entity: !1044, file: !990, line: 82)
!1044 = !DISubprogram(name: "towctrans", scope: !1010, file: !1010, line: 121, type: !1045, flags: DIFlagPrototyped, spFlags: DISPFlagOptimized)
!1045 = !DISubroutineType(types: !1046)
!1046 = !{!987, !987, !992}
!1047 = !DIImportedEntity(tag: DW_TAG_imported_declaration, scope: !18, entity: !1048, file: !990, line: 83)
!1048 = !DISubprogram(name: "wctrans", scope: !1010, file: !1010, line: 123, type: !1049, flags: DIFlagPrototyped, spFlags: DISPFlagOptimized)
!1049 = !DISubroutineType(types: !1050)
!1050 = !{!992, !13}
!1051 = !DIImportedEntity(tag: DW_TAG_imported_declaration, scope: !18, entity: !322, file: !1052, line: 115)
!1052 = !DIFile(filename: "/opt/homebrew/Cellar/llvm@14/14.0.6/bin/../include/c++/v1/cwchar", directory: "")
!1053 = !DIImportedEntity(tag: DW_TAG_imported_declaration, scope: !18, entity: !136, file: !1052, line: 116)
!1054 = !DIImportedEntity(tag: DW_TAG_imported_declaration, scope: !18, entity: !720, file: !1052, line: 117)
!1055 = !DIImportedEntity(tag: DW_TAG_imported_declaration, scope: !18, entity: !987, file: !1052, line: 118)
!1056 = !DIImportedEntity(tag: DW_TAG_imported_declaration, scope: !18, entity: !775, file: !1052, line: 119)
!1057 = !DIImportedEntity(tag: DW_TAG_imported_declaration, scope: !18, entity: !1058, file: !1052, line: 120)
!1058 = !DISubprogram(name: "fwprintf", scope: !1059, file: !1059, line: 103, type: !1060, flags: DIFlagPrototyped, spFlags: DISPFlagOptimized)
!1059 = !DIFile(filename: "/Library/Developer/CommandLineTools/SDKs/MacOSX13.sdk/usr/include/wchar.h", directory: "")
!1060 = !DISubroutineType(types: !1061)
!1061 = !{!6, !836, !314, null}
!1062 = !DIImportedEntity(tag: DW_TAG_imported_declaration, scope: !18, entity: !1063, file: !1052, line: 121)
!1063 = !DISubprogram(name: "fwscanf", scope: !1059, file: !1059, line: 104, type: !1060, flags: DIFlagPrototyped, spFlags: DISPFlagOptimized)
!1064 = !DIImportedEntity(tag: DW_TAG_imported_declaration, scope: !18, entity: !1065, file: !1052, line: 122)
!1065 = !DISubprogram(name: "swprintf", scope: !1059, file: !1059, line: 115, type: !1066, flags: DIFlagPrototyped, spFlags: DISPFlagOptimized)
!1066 = !DISubroutineType(types: !1067)
!1067 = !{!6, !300, !136, !314, null}
!1068 = !DIImportedEntity(tag: DW_TAG_imported_declaration, scope: !18, entity: !1069, file: !1052, line: 123)
!1069 = !DISubprogram(name: "vfwprintf", scope: !1059, file: !1059, line: 118, type: !1070, flags: DIFlagPrototyped, spFlags: DISPFlagOptimized)
!1070 = !DISubroutineType(types: !1071)
!1071 = !{!6, !836, !314, !871}
!1072 = !DIImportedEntity(tag: DW_TAG_imported_declaration, scope: !18, entity: !1073, file: !1052, line: 124)
!1073 = !DISubprogram(name: "vswprintf", scope: !1059, file: !1059, line: 120, type: !1074, flags: DIFlagPrototyped, spFlags: DISPFlagOptimized)
!1074 = !DISubroutineType(types: !1075)
!1075 = !{!6, !300, !136, !314, !871}
!1076 = !DIImportedEntity(tag: DW_TAG_imported_declaration, scope: !18, entity: !1077, file: !1052, line: 125)
!1077 = !DISubprogram(name: "swscanf", scope: !1059, file: !1059, line: 116, type: !1078, flags: DIFlagPrototyped, spFlags: DISPFlagOptimized)
!1078 = !DISubroutineType(types: !1079)
!1079 = !{!6, !314, !314, null}
!1080 = !DIImportedEntity(tag: DW_TAG_imported_declaration, scope: !18, entity: !1081, file: !1052, line: 126)
!1081 = !DISubprogram(name: "vfwscanf", scope: !1059, file: !1059, line: 170, type: !1070, flags: DIFlagPrototyped, spFlags: DISPFlagOptimized)
!1082 = !DIImportedEntity(tag: DW_TAG_imported_declaration, scope: !18, entity: !1083, file: !1052, line: 127)
!1083 = !DISubprogram(name: "vswscanf", scope: !1059, file: !1059, line: 172, type: !1084, flags: DIFlagPrototyped, spFlags: DISPFlagOptimized)
!1084 = !DISubroutineType(types: !1085)
!1085 = !{!6, !314, !314, !871}
!1086 = !DIImportedEntity(tag: DW_TAG_imported_declaration, scope: !18, entity: !1087, file: !1052, line: 128)
!1087 = !DISubprogram(name: "fgetwc", scope: !1059, file: !1059, line: 98, type: !1088, flags: DIFlagPrototyped, spFlags: DISPFlagOptimized)
!1088 = !DISubroutineType(types: !1089)
!1089 = !{!987, !836}
!1090 = !DIImportedEntity(tag: DW_TAG_imported_declaration, scope: !18, entity: !1091, file: !1052, line: 129)
!1091 = !DISubprogram(name: "fgetws", scope: !1059, file: !1059, line: 99, type: !1092, flags: DIFlagPrototyped, spFlags: DISPFlagOptimized)
!1092 = !DISubroutineType(types: !1093)
!1093 = !{!300, !300, !6, !836}
!1094 = !DIImportedEntity(tag: DW_TAG_imported_declaration, scope: !18, entity: !1095, file: !1052, line: 130)
!1095 = !DISubprogram(name: "fputwc", scope: !1059, file: !1059, line: 100, type: !1096, flags: DIFlagPrototyped, spFlags: DISPFlagOptimized)
!1096 = !DISubroutineType(types: !1097)
!1097 = !{!987, !301, !836}
!1098 = !DIImportedEntity(tag: DW_TAG_imported_declaration, scope: !18, entity: !1099, file: !1052, line: 131)
!1099 = !DISubprogram(name: "fputws", scope: !1059, file: !1059, line: 101, type: !1100, flags: DIFlagPrototyped, spFlags: DISPFlagOptimized)
!1100 = !DISubroutineType(types: !1101)
!1101 = !{!6, !314, !836}
!1102 = !DIImportedEntity(tag: DW_TAG_imported_declaration, scope: !18, entity: !1103, file: !1052, line: 132)
!1103 = !DISubprogram(name: "fwide", scope: !1059, file: !1059, line: 102, type: !1104, flags: DIFlagPrototyped, spFlags: DISPFlagOptimized)
!1104 = !DISubroutineType(types: !1105)
!1105 = !{!6, !836, !6}
!1106 = !DIImportedEntity(tag: DW_TAG_imported_declaration, scope: !18, entity: !1107, file: !1052, line: 133)
!1107 = !DISubprogram(name: "getwc", scope: !1059, file: !1059, line: 105, type: !1088, flags: DIFlagPrototyped, spFlags: DISPFlagOptimized)
!1108 = !DIImportedEntity(tag: DW_TAG_imported_declaration, scope: !18, entity: !1109, file: !1052, line: 134)
!1109 = !DISubprogram(name: "putwc", scope: !1059, file: !1059, line: 113, type: !1096, flags: DIFlagPrototyped, spFlags: DISPFlagOptimized)
!1110 = !DIImportedEntity(tag: DW_TAG_imported_declaration, scope: !18, entity: !1111, file: !1052, line: 135)
!1111 = !DISubprogram(name: "ungetwc", scope: !1059, file: !1059, line: 117, type: !1112, flags: DIFlagPrototyped, spFlags: DISPFlagOptimized)
!1112 = !DISubroutineType(types: !1113)
!1113 = !{!987, !987, !836}
!1114 = !DIImportedEntity(tag: DW_TAG_imported_declaration, scope: !18, entity: !1115, file: !1052, line: 136)
!1115 = !DISubprogram(name: "wcstod", scope: !1059, file: !1059, line: 144, type: !1116, flags: DIFlagPrototyped, spFlags: DISPFlagOptimized)
!1116 = !DISubroutineType(types: !1117)
!1117 = !{!168, !314, !1118}
!1118 = !DIDerivedType(tag: DW_TAG_pointer_type, baseType: !300, size: 64)
!1119 = !DIImportedEntity(tag: DW_TAG_imported_declaration, scope: !18, entity: !1120, file: !1052, line: 137)
!1120 = !DISubprogram(name: "wcstof", scope: !1059, file: !1059, line: 175, type: !1121, flags: DIFlagPrototyped, spFlags: DISPFlagOptimized)
!1121 = !DISubroutineType(types: !1122)
!1122 = !{!190, !314, !1118}
!1123 = !DIImportedEntity(tag: DW_TAG_imported_declaration, scope: !18, entity: !1124, file: !1052, line: 138)
!1124 = !DISubprogram(name: "wcstold", scope: !1059, file: !1059, line: 177, type: !1125, flags: DIFlagPrototyped, spFlags: DISPFlagOptimized)
!1125 = !DISubroutineType(types: !1126)
!1126 = !{!142, !314, !1118}
!1127 = !DIImportedEntity(tag: DW_TAG_imported_declaration, scope: !18, entity: !1128, file: !1052, line: 139)
!1128 = !DISubprogram(name: "wcstol", scope: !1059, file: !1059, line: 147, type: !1129, flags: DIFlagPrototyped, spFlags: DISPFlagOptimized)
!1129 = !DISubroutineType(types: !1130)
!1130 = !{!120, !314, !1118, !6}
!1131 = !DIImportedEntity(tag: DW_TAG_imported_declaration, scope: !18, entity: !1132, file: !1052, line: 140)
!1132 = !DISubprogram(name: "wcstoll", scope: !1059, file: !1059, line: 180, type: !1133, flags: DIFlagPrototyped, spFlags: DISPFlagOptimized)
!1133 = !DISubroutineType(types: !1134)
!1134 = !{!66, !314, !1118, !6}
!1135 = !DIImportedEntity(tag: DW_TAG_imported_declaration, scope: !18, entity: !1136, file: !1052, line: 141)
!1136 = !DISubprogram(name: "wcstoul", scope: !1059, file: !1059, line: 149, type: !1137, flags: DIFlagPrototyped, spFlags: DISPFlagOptimized)
!1137 = !DISubroutineType(types: !1138)
!1138 = !{!124, !314, !1118, !6}
!1139 = !DIImportedEntity(tag: DW_TAG_imported_declaration, scope: !18, entity: !1140, file: !1052, line: 142)
!1140 = !DISubprogram(name: "wcstoull", scope: !1059, file: !1059, line: 182, type: !1141, flags: DIFlagPrototyped, spFlags: DISPFlagOptimized)
!1141 = !DISubroutineType(types: !1142)
!1142 = !{!81, !314, !1118, !6}
!1143 = !DIImportedEntity(tag: DW_TAG_imported_declaration, scope: !18, entity: !1144, file: !1052, line: 143)
!1144 = !DISubprogram(name: "wcscpy", scope: !1059, file: !1059, line: 128, type: !1145, flags: DIFlagPrototyped, spFlags: DISPFlagOptimized)
!1145 = !DISubroutineType(types: !1146)
!1146 = !{!300, !300, !314}
!1147 = !DIImportedEntity(tag: DW_TAG_imported_declaration, scope: !18, entity: !1148, file: !1052, line: 144)
!1148 = !DISubprogram(name: "wcsncpy", scope: !1059, file: !1059, line: 135, type: !1149, flags: DIFlagPrototyped, spFlags: DISPFlagOptimized)
!1149 = !DISubroutineType(types: !1150)
!1150 = !{!300, !300, !314, !136}
!1151 = !DIImportedEntity(tag: DW_TAG_imported_declaration, scope: !18, entity: !1152, file: !1052, line: 145)
!1152 = !DISubprogram(name: "wcscat", scope: !1059, file: !1059, line: 124, type: !1145, flags: DIFlagPrototyped, spFlags: DISPFlagOptimized)
!1153 = !DIImportedEntity(tag: DW_TAG_imported_declaration, scope: !18, entity: !1154, file: !1052, line: 146)
!1154 = !DISubprogram(name: "wcsncat", scope: !1059, file: !1059, line: 133, type: !1149, flags: DIFlagPrototyped, spFlags: DISPFlagOptimized)
!1155 = !DIImportedEntity(tag: DW_TAG_imported_declaration, scope: !18, entity: !1156, file: !1052, line: 147)
!1156 = !DISubprogram(name: "wcscmp", scope: !1059, file: !1059, line: 126, type: !1157, flags: DIFlagPrototyped, spFlags: DISPFlagOptimized)
!1157 = !DISubroutineType(types: !1158)
!1158 = !{!6, !314, !314}
!1159 = !DIImportedEntity(tag: DW_TAG_imported_declaration, scope: !18, entity: !1160, file: !1052, line: 148)
!1160 = !DISubprogram(name: "wcscoll", scope: !1059, file: !1059, line: 127, type: !1157, flags: DIFlagPrototyped, spFlags: DISPFlagOptimized)
!1161 = !DIImportedEntity(tag: DW_TAG_imported_declaration, scope: !18, entity: !1162, file: !1052, line: 149)
!1162 = !DISubprogram(name: "wcsncmp", scope: !1059, file: !1059, line: 134, type: !1163, flags: DIFlagPrototyped, spFlags: DISPFlagOptimized)
!1163 = !DISubroutineType(types: !1164)
!1164 = !{!6, !314, !314, !136}
!1165 = !DIImportedEntity(tag: DW_TAG_imported_declaration, scope: !18, entity: !1166, file: !1052, line: 150)
!1166 = !DISubprogram(name: "wcsxfrm", scope: !1059, file: !1059, line: 142, type: !1167, flags: DIFlagPrototyped, spFlags: DISPFlagOptimized)
!1167 = !DISubroutineType(types: !1168)
!1168 = !{!136, !300, !314, !136}
!1169 = !DIImportedEntity(tag: DW_TAG_imported_declaration, scope: !18, entity: !1170, file: !1052, line: 151)
!1170 = !DISubprogram(name: "wcschr", linkageName: "_Z6wcschrUa9enable_ifILb1EEPww", scope: !1171, file: !1171, line: 145, type: !1172, flags: DIFlagPrototyped, spFlags: DISPFlagOptimized)
!1171 = !DIFile(filename: "/opt/homebrew/Cellar/llvm@14/14.0.6/bin/../include/c++/v1/wchar.h", directory: "")
!1172 = !DISubroutineType(types: !1173)
!1173 = !{!300, !300, !301}
!1174 = !DIImportedEntity(tag: DW_TAG_imported_declaration, scope: !18, entity: !1175, file: !1052, line: 152)
!1175 = !DISubprogram(name: "wcspbrk", linkageName: "_Z7wcspbrkUa9enable_ifILb1EEPwPKw", scope: !1171, file: !1171, line: 152, type: !1145, flags: DIFlagPrototyped, spFlags: DISPFlagOptimized)
!1176 = !DIImportedEntity(tag: DW_TAG_imported_declaration, scope: !18, entity: !1177, file: !1052, line: 153)
!1177 = !DISubprogram(name: "wcsrchr", linkageName: "_Z7wcsrchrUa9enable_ifILb1EEPww", scope: !1171, file: !1171, line: 159, type: !1172, flags: DIFlagPrototyped, spFlags: DISPFlagOptimized)
!1178 = !DIImportedEntity(tag: DW_TAG_imported_declaration, scope: !18, entity: !1179, file: !1052, line: 154)
!1179 = !DISubprogram(name: "wcsstr", linkageName: "_Z6wcsstrUa9enable_ifILb1EEPwPKw", scope: !1171, file: !1171, line: 166, type: !1145, flags: DIFlagPrototyped, spFlags: DISPFlagOptimized)
!1180 = !DIImportedEntity(tag: DW_TAG_imported_declaration, scope: !18, entity: !1181, file: !1052, line: 155)
!1181 = !DISubprogram(name: "wmemchr", linkageName: "_Z7wmemchrUa9enable_ifILb1EEPwwm", scope: !1171, file: !1171, line: 173, type: !1182, flags: DIFlagPrototyped, spFlags: DISPFlagOptimized)
!1182 = !DISubroutineType(types: !1183)
!1183 = !{!300, !300, !301, !136}
!1184 = !DIImportedEntity(tag: DW_TAG_imported_declaration, scope: !18, entity: !1185, file: !1052, line: 156)
!1185 = !DISubprogram(name: "wcscspn", scope: !1059, file: !1059, line: 129, type: !1186, flags: DIFlagPrototyped, spFlags: DISPFlagOptimized)
!1186 = !DISubroutineType(types: !1187)
!1187 = !{!136, !314, !314}
!1188 = !DIImportedEntity(tag: DW_TAG_imported_declaration, scope: !18, entity: !1189, file: !1052, line: 157)
!1189 = !DISubprogram(name: "wcslen", scope: !1059, file: !1059, line: 132, type: !1190, flags: DIFlagPrototyped, spFlags: DISPFlagOptimized)
!1190 = !DISubroutineType(types: !1191)
!1191 = !{!136, !314}
!1192 = !DIImportedEntity(tag: DW_TAG_imported_declaration, scope: !18, entity: !1193, file: !1052, line: 158)
!1193 = !DISubprogram(name: "wcsspn", scope: !1059, file: !1059, line: 140, type: !1186, flags: DIFlagPrototyped, spFlags: DISPFlagOptimized)
!1194 = !DIImportedEntity(tag: DW_TAG_imported_declaration, scope: !18, entity: !1195, file: !1052, line: 159)
!1195 = !DISubprogram(name: "wcstok", scope: !1059, file: !1059, line: 145, type: !1196, flags: DIFlagPrototyped, spFlags: DISPFlagOptimized)
!1196 = !DISubroutineType(types: !1197)
!1197 = !{!300, !300, !314, !1118}
!1198 = !DIImportedEntity(tag: DW_TAG_imported_declaration, scope: !18, entity: !1199, file: !1052, line: 160)
!1199 = !DISubprogram(name: "wmemcmp", scope: !1059, file: !1059, line: 151, type: !1163, flags: DIFlagPrototyped, spFlags: DISPFlagOptimized)
!1200 = !DIImportedEntity(tag: DW_TAG_imported_declaration, scope: !18, entity: !1201, file: !1052, line: 161)
!1201 = !DISubprogram(name: "wmemcpy", scope: !1059, file: !1059, line: 152, type: !1149, flags: DIFlagPrototyped, spFlags: DISPFlagOptimized)
!1202 = !DIImportedEntity(tag: DW_TAG_imported_declaration, scope: !18, entity: !1203, file: !1052, line: 162)
!1203 = !DISubprogram(name: "wmemmove", scope: !1059, file: !1059, line: 153, type: !1149, flags: DIFlagPrototyped, spFlags: DISPFlagOptimized)
!1204 = !DIImportedEntity(tag: DW_TAG_imported_declaration, scope: !18, entity: !1205, file: !1052, line: 163)
!1205 = !DISubprogram(name: "wmemset", scope: !1059, file: !1059, line: 154, type: !1182, flags: DIFlagPrototyped, spFlags: DISPFlagOptimized)
!1206 = !DIImportedEntity(tag: DW_TAG_imported_declaration, scope: !18, entity: !1207, file: !1052, line: 164)
!1207 = !DISubprogram(name: "wcsftime", linkageName: "\01_wcsftime", scope: !1059, file: !1059, line: 130, type: !1208, flags: DIFlagPrototyped, spFlags: DISPFlagOptimized)
!1208 = !DISubroutineType(types: !1209)
!1209 = !{!136, !300, !136, !314, !756}
!1210 = !DIImportedEntity(tag: DW_TAG_imported_declaration, scope: !18, entity: !1211, file: !1052, line: 165)
!1211 = !DISubprogram(name: "btowc", scope: !1059, file: !1059, line: 97, type: !1212, flags: DIFlagPrototyped, spFlags: DISPFlagOptimized)
!1212 = !DISubroutineType(types: !1213)
!1213 = !{!987, !6}
!1214 = !DIImportedEntity(tag: DW_TAG_imported_declaration, scope: !18, entity: !1215, file: !1052, line: 166)
!1215 = !DISubprogram(name: "wctob", scope: !1059, file: !1059, line: 143, type: !1004, flags: DIFlagPrototyped, spFlags: DISPFlagOptimized)
!1216 = !DIImportedEntity(tag: DW_TAG_imported_declaration, scope: !18, entity: !1217, file: !1052, line: 167)
!1217 = !DISubprogram(name: "mbsinit", scope: !1059, file: !1059, line: 110, type: !1218, flags: DIFlagPrototyped, spFlags: DISPFlagOptimized)
!1218 = !DISubroutineType(types: !1219)
!1219 = !{!6, !1220}
!1220 = !DIDerivedType(tag: DW_TAG_pointer_type, baseType: !1221, size: 64)
!1221 = !DIDerivedType(tag: DW_TAG_const_type, baseType: !322)
!1222 = !DIImportedEntity(tag: DW_TAG_imported_declaration, scope: !18, entity: !1223, file: !1052, line: 168)
!1223 = !DISubprogram(name: "mbrlen", scope: !1059, file: !1059, line: 107, type: !1224, flags: DIFlagPrototyped, spFlags: DISPFlagOptimized)
!1224 = !DISubroutineType(types: !1225)
!1225 = !{!136, !13, !136, !1226}
!1226 = !DIDerivedType(tag: DW_TAG_pointer_type, baseType: !322, size: 64)
!1227 = !DIImportedEntity(tag: DW_TAG_imported_declaration, scope: !18, entity: !1228, file: !1052, line: 169)
!1228 = !DISubprogram(name: "mbrtowc", scope: !1059, file: !1059, line: 108, type: !1229, flags: DIFlagPrototyped, spFlags: DISPFlagOptimized)
!1229 = !DISubroutineType(types: !1230)
!1230 = !{!136, !300, !13, !136, !1226}
!1231 = !DIImportedEntity(tag: DW_TAG_imported_declaration, scope: !18, entity: !1232, file: !1052, line: 170)
!1232 = !DISubprogram(name: "wcrtomb", scope: !1059, file: !1059, line: 123, type: !1233, flags: DIFlagPrototyped, spFlags: DISPFlagOptimized)
!1233 = !DISubroutineType(types: !1234)
!1234 = !{!136, !11, !301, !1226}
!1235 = !DIImportedEntity(tag: DW_TAG_imported_declaration, scope: !18, entity: !1236, file: !1052, line: 171)
!1236 = !DISubprogram(name: "mbsrtowcs", scope: !1059, file: !1059, line: 111, type: !1237, flags: DIFlagPrototyped, spFlags: DISPFlagOptimized)
!1237 = !DISubroutineType(types: !1238)
!1238 = !{!136, !300, !1239, !136, !1226}
!1239 = !DIDerivedType(tag: DW_TAG_pointer_type, baseType: !13, size: 64)
!1240 = !DIImportedEntity(tag: DW_TAG_imported_declaration, scope: !18, entity: !1241, file: !1052, line: 172)
!1241 = !DISubprogram(name: "wcsrtombs", scope: !1059, file: !1059, line: 138, type: !1242, flags: DIFlagPrototyped, spFlags: DISPFlagOptimized)
!1242 = !DISubroutineType(types: !1243)
!1243 = !{!136, !11, !1244, !136, !1226}
!1244 = !DIDerivedType(tag: DW_TAG_pointer_type, baseType: !314, size: 64)
!1245 = !DIImportedEntity(tag: DW_TAG_imported_declaration, scope: !18, entity: !1246, file: !1052, line: 174)
!1246 = !DISubprogram(name: "getwchar", scope: !1059, file: !1059, line: 106, type: !1247, flags: DIFlagPrototyped, spFlags: DISPFlagOptimized)
!1247 = !DISubroutineType(types: !1248)
!1248 = !{!987}
!1249 = !DIImportedEntity(tag: DW_TAG_imported_declaration, scope: !18, entity: !1250, file: !1052, line: 175)
!1250 = !DISubprogram(name: "vwscanf", scope: !1059, file: !1059, line: 174, type: !1251, flags: DIFlagPrototyped, spFlags: DISPFlagOptimized)
!1251 = !DISubroutineType(types: !1252)
!1252 = !{!6, !314, !871}
!1253 = !DIImportedEntity(tag: DW_TAG_imported_declaration, scope: !18, entity: !1254, file: !1052, line: 176)
!1254 = !DISubprogram(name: "wscanf", scope: !1059, file: !1059, line: 156, type: !1255, flags: DIFlagPrototyped, spFlags: DISPFlagOptimized)
!1255 = !DISubroutineType(types: !1256)
!1256 = !{!6, !314, null}
!1257 = !DIImportedEntity(tag: DW_TAG_imported_declaration, scope: !18, entity: !1258, file: !1052, line: 178)
!1258 = !DISubprogram(name: "putwchar", scope: !1059, file: !1059, line: 114, type: !1259, flags: DIFlagPrototyped, spFlags: DISPFlagOptimized)
!1259 = !DISubroutineType(types: !1260)
!1260 = !{!987, !301}
!1261 = !DIImportedEntity(tag: DW_TAG_imported_declaration, scope: !18, entity: !1262, file: !1052, line: 179)
!1262 = !DISubprogram(name: "vwprintf", scope: !1059, file: !1059, line: 122, type: !1251, flags: DIFlagPrototyped, spFlags: DISPFlagOptimized)
!1263 = !DIImportedEntity(tag: DW_TAG_imported_declaration, scope: !18, entity: !1264, file: !1052, line: 180)
!1264 = !DISubprogram(name: "wprintf", scope: !1059, file: !1059, line: 155, type: !1255, flags: DIFlagPrototyped, spFlags: DISPFlagOptimized)
!1265 = !{!1266, !1271, !1272, !1273}
!1266 = !DILocalVariable(name: "m", scope: !1267, file: !3, line: 41, type: !1268)
!1267 = distinct !DILexicalBlock(scope: !2, file: !3, line: 33, column: 2)
!1268 = !DICompositeType(tag: DW_TAG_array_type, baseType: !12, size: 8192, elements: !1269)
!1269 = !{!1270}
!1270 = !DISubrange(count: 1024)
!1271 = !DILocalVariable(name: "ret", scope: !1267, file: !3, line: 46, type: !11)
!1272 = !DILocalVariable(name: "fileName", scope: !1267, file: !3, line: 51, type: !11)
!1273 = !DILocalVariable(name: "funSignature", scope: !1267, file: !3, line: 52, type: !11)
!1274 = !DIDerivedType(tag: DW_TAG_pointer_type, baseType: !1275, size: 64)
!1275 = !DIDerivedType(tag: DW_TAG_const_type, baseType: !1276)
!1276 = !DIDerivedType(tag: DW_TAG_volatile_type, baseType: !12)
!1277 = !{i32 7, !"Dwarf Version", i32 4}
!1278 = !{i32 2, !"Debug Info Version", i32 3}
!1279 = !{i32 1, !"wchar_size", i32 4}
!1280 = !{i32 1, !"branch-target-enforcement", i32 0}
!1281 = !{i32 1, !"sign-return-address", i32 0}
!1282 = !{i32 1, !"sign-return-address-all", i32 0}
!1283 = !{i32 1, !"sign-return-address-with-bkey", i32 0}
!1284 = !{i32 7, !"PIC Level", i32 2}
!1285 = !{i32 7, !"uwtable", i32 1}
!1286 = !{i32 7, !"frame-pointer", i32 1}
!1287 = !{!"Homebrew clang version 14.0.6"}
!1288 = distinct !DISubprogram(name: "SpecFileGeneration", linkageName: "_Z18SpecFileGenerationPKcS0_S0_", scope: !3, file: !3, line: 7, type: !1289, scopeLine: 8, flags: DIFlagPrototyped | DIFlagAllCallsDescribed, spFlags: DISPFlagDefinition | DISPFlagOptimized, unit: !7, retainedNodes: !1291)
!1289 = !DISubroutineType(types: !1290)
!1290 = !{null, !13, !13, !13}
!1291 = !{!1292, !1293, !1294, !1295}
!1292 = !DILocalVariable(name: "specification", arg: 1, scope: !1288, file: !3, line: 7, type: !13)
!1293 = !DILocalVariable(name: "fileName", arg: 2, scope: !1288, file: !3, line: 7, type: !13)
!1294 = !DILocalVariable(name: "funSignature", arg: 3, scope: !1288, file: !3, line: 7, type: !13)
!1295 = !DILocalVariable(name: "file", scope: !1288, file: !3, line: 9, type: !836)
!1296 = !DILocation(line: 8, scope: !1288)
!1297 = !{}
!1298 = !DILocation(line: 0, scope: !1288)
!1299 = !DILocation(line: 9, column: 18, scope: !1288)
!1300 = !DILocation(line: 10, column: 9, scope: !1301)
!1301 = distinct !DILexicalBlock(scope: !1288, file: !3, line: 10, column: 9)
!1302 = !DILocation(line: 10, column: 9, scope: !1288)
!1303 = !DILocation(line: 11, column: 9, scope: !1304)
!1304 = distinct !DILexicalBlock(scope: !1301, file: !3, line: 10, column: 15)
!1305 = !DILocation(line: 12, column: 9, scope: !1304)
!1306 = !DILocation(line: 13, column: 9, scope: !1304)
!1307 = !DILocation(line: 14, column: 9, scope: !1304)
!1308 = !DILocation(line: 15, column: 9, scope: !1304)
!1309 = !DILocation(line: 16, column: 5, scope: !1304)
!1310 = !DILocation(line: 18, column: 9, scope: !1311)
!1311 = distinct !DILexicalBlock(scope: !1301, file: !3, line: 16, column: 12)
!1312 = !DILocation(line: 20, column: 1, scope: !1288)
!1313 = !DISubprogram(name: "fclose", scope: !833, file: !833, line: 143, type: !834, flags: DIFlagPrototyped, spFlags: DISPFlagOptimized, retainedNodes: !1297)
!1314 = distinct !DISubprogram(name: "__memrchr", linkageName: "_Z9__memrchrPKcim", scope: !3, file: !3, line: 22, type: !1315, scopeLine: 23, flags: DIFlagPrototyped | DIFlagAllCallsDescribed, spFlags: DISPFlagDefinition | DISPFlagOptimized, unit: !7, retainedNodes: !1317)
!1315 = !DISubroutineType(types: !1316)
!1316 = !{!11, !13, !6, !136}
!1317 = !{!1318, !1319, !1320, !1321}
!1318 = !DILocalVariable(name: "m", arg: 1, scope: !1314, file: !3, line: 22, type: !13)
!1319 = !DILocalVariable(name: "c", arg: 2, scope: !1314, file: !3, line: 22, type: !6)
!1320 = !DILocalVariable(name: "n", arg: 3, scope: !1314, file: !3, line: 22, type: !136)
!1321 = !DILocalVariable(name: "s", scope: !1314, file: !3, line: 24, type: !13)
!1322 = !DILocation(line: 23, scope: !1314)
!1323 = !DILocation(line: 0, scope: !1314)
!1324 = !DILocation(line: 25, column: 6, scope: !1314)
!1325 = !DILocation(line: 26, column: 2, scope: !1314)
!1326 = !DILocation(line: 26, column: 10, scope: !1314)
!1327 = !DILocation(line: 26, column: 9, scope: !1314)
!1328 = !DILocation(line: 26, column: 18, scope: !1329)
!1329 = distinct !DILexicalBlock(scope: !1314, file: !3, line: 26, column: 18)
!1330 = !{!1331, !1331, i64 0}
!1331 = !{!"omnipotent char", !1332, i64 0}
!1332 = !{!"Simple C++ TBAA"}
!1333 = !DILocation(line: 26, column: 22, scope: !1329)
!1334 = !DILocation(line: 26, column: 18, scope: !1314)
!1335 = distinct !{!1335, !1325, !1336, !1337}
!1336 = !DILocation(line: 26, column: 46, scope: !1314)
!1337 = !{!"llvm.loop.mustprogress"}
!1338 = !DILocation(line: 28, column: 1, scope: !1314)
!1339 = !DILocation(line: 30, scope: !2)
!1340 = !DILocation(line: 32, column: 9, scope: !1341)
!1341 = distinct !DILexicalBlock(scope: !2, file: !3, line: 32, column: 9)
!1342 = !{!1343, !1343, i64 0}
!1343 = !{!"any pointer", !1331, i64 0}
!1344 = !{!1345, !1345, i64 0}
!1345 = !{!"int", !1331, i64 0}
!1346 = !DILocation(line: 32, column: 9, scope: !2)
!1347 = !DILocation(line: 32, column: 2, scope: !2)
!1348 = !DILocation(line: 41, column: 3, scope: !1267)
!1349 = !DILocation(line: 41, column: 8, scope: !1267)
!1350 = !DILocation(line: 42, column: 27, scope: !1351)
!1351 = distinct !DILexicalBlock(scope: !1267, file: !3, line: 42, column: 7)
!1352 = !DILocation(line: 42, column: 7, scope: !1351)
!1353 = !DILocation(line: 42, column: 34, scope: !1351)
!1354 = !DILocation(line: 42, column: 7, scope: !1267)
!1355 = !DILocation(line: 0, scope: !1314, inlinedAt: !1356)
!1356 = distinct !DILocation(line: 46, column: 15, scope: !1267)
!1357 = !DILocation(line: 26, column: 18, scope: !1329, inlinedAt: !1356)
!1358 = !DILocation(line: 26, column: 22, scope: !1329, inlinedAt: !1356)
!1359 = !DILocation(line: 26, column: 18, scope: !1314, inlinedAt: !1356)
!1360 = distinct !{!1360, !1361, !1362, !1337}
!1361 = !DILocation(line: 26, column: 2, scope: !1314, inlinedAt: !1356)
!1362 = !DILocation(line: 26, column: 46, scope: !1314, inlinedAt: !1356)
!1363 = !DILocation(line: 58, column: 2, scope: !2)
!1364 = !DILocation(line: 0, scope: !1267)
!1365 = !DILocation(line: 56, column: 4, scope: !1366)
!1366 = distinct !DILexicalBlock(scope: !1367, file: !3, line: 55, column: 3)
!1367 = distinct !DILexicalBlock(scope: !1267, file: !3, line: 54, column: 7)
!1368 = !DILocation(line: 57, column: 3, scope: !1366)
!1369 = !DILocation(line: 0, scope: !2)
!1370 = !DILocation(line: 61, column: 1, scope: !2)
!1371 = !DISubprogram(name: "fgets", scope: !833, file: !833, line: 149, type: !891, flags: DIFlagPrototyped, spFlags: DISPFlagOptimized, retainedNodes: !1297)
